(lp0
(lp1
S'11 11 2004 14 42 00'
p2
a(lp3
I1
aI1
aI1
aI1
aI1
aI1
aI1
aI1
aI1
aI1
aI1
aI1
aI1
aI1
aI1
aI1
aI1
aI1
aI1
aI1
aI1
aI1
aI1
aI1
aI1
aI1
aI1
aI1
aI1
aI1
aI1
aI2
aI2
aI2
aI2
aI2
aI3
aI3
aI3
aI3
aI3
aI3
aI3
aI3
aI4
aI4
aI4
aI4
aI4
aI4
aI4
aI4
aI4
aI4
aI5
aI6
aI5
aI5
aI6
aI6
aI8
aI7
aI8
aI8
aI8
aI6
aI7
aI7
aI6
aI4
aI5
aI5
aI5
aI9
aI9
aI7
aI7
aI7
aI6
aI6
aI5
aI4
aI6
aI3
aI4
aI4
aI7
aI8
aI5
aI7
aI8
aI5
aI6
aI6
aI6
aI7
aI6
aI6
aI6
aI6
aI6
aI5
aI8
aI5
aI4
aI4
aI4
aI5
aI3
aI3
aI4
aI4
aI4
aI4
aI4
aI4
aI3
aI3
aI6
aI7
aI7
aI10
aI10
aI10
aI6
aI5
aI5
aI4
aI3
aI5
aI6
aI8
aI6
aI6
aI7
aI7
aI6
aI7
aI7
aI7
aI8
aI12
aI11
aI10
aI10
aI12
aI12
aI11
aI10
aI9
aI11
aI12
aI10
aI10
aI10
aI9
aI9
aI8
aI8
aI9
aI8
aI7
aI7
aI7
aI7
aI7
aI7
aI7
aI7
aI7
aI8
aI8
aI9
aI8
aI10
aI9
aI9
aI9
aI10
aI11
aI9
aI9
aI12
aI13
aI12
aI11
aI12
aI13
aI10
aI7
aI7
aI8
aI7
aI8
aI9
aI11
aI11
aI9
aI10
aI9
aI8
aI7
aI9
aI10
aI9
aI10
aI9
aI10
aI8
aI7
aI6
aI7
aI6
aI6
aI8
aI7
aI5
aI5
aI7
aI7
aI6
aI6
aI4
aI3
aI3
aI3
aI1
aI2
aI2
aI5
aI6
aI5
aI5
aI5
aI5
aI5
aI5
aI4
aI3
aI4
aI4
aI3
aI3
aI5
aI5
aI4
aI6
aI6
aI5
aI4
aI4
aI3
aI3
aI4
aI3
aI5
aI4
aI5
aI5
aI3
aI3
aI3
aI3
aI4
aI4
aI5
aI6
aI6
aI5
aI3
aI2
aI2
aI2
aI2
aI2
aI3
aI3
aI4
aI5
aI6
aI4
aI6
aI6
aI6
aI5
aI4
aI5
aI4
aI4
aI7
aI8
aI9
aI7
aI5
aI4
aI4
aI4
aI4
aI5
aI4
aI5
aI7
aI6
aI6
aI7
aI6
aI10
aI8
aI6
aI6
aI6
aI8
aI7
aI8
aI7
aI7
aI6
aI5
aI6
aI7
aI6
aI7
aI7
aI6
aI6
aI5
aI7
aI6
aI5
aI4
aI5
aI5
aI5
aI4
aI4
aI5
aI7
aI8
aI8
aI8
aI7
aI5
aI6
aI7
aI5
aI5
aI3
aI3
aI3
aI2
aI0
aI0
aI0
aI1
aI1
aI2
aI2
aI1
aI2
aI2
aI1
aI2
aI6
aI5
aI5
aI5
aI5
aI5
aI4
aI2
aI6
aI5
aI6
aI6
aI7
aI6
aI3
aI2
aI3
aI3
aI3
aI3
aI5
aI4
aI3
aI1
aI3
aI3
aI3
aI3
aI6
aI6
aI7
aI7
aI9
aI8
aI8
aI8
aI7
aI6
aI7
aI7
aI4
aI4
aI4
aI4
aI5
aI5
aI6
aI7
aI5
aI4
aI3
aI2
aI4
aI3
aI2
aI0
aI2
aI4
aI2
aI2
aI3
aI3
aI2
aI3
aI3
aI5
aI5
aI5
aI5
aI5
aI5
aI5
aI5
aI5
aI5
aI2
aI3
aI3
aI3
aI4
aI5
aI5
aI5
aI6
aI6
aI8
aI9
aI8
aI9
aI9
aI8
aI5
aI5
aI7
aI7
aI7
aI6
aI6
aI6
aI5
aI3
aI3
aI3
aI3
aI4
aI4
aI3
aI3
aI5
aI6
aI6
aI4
aI4
aI5
aI5
aI6
aI6
aI5
aI4
aI4
aI7
aI7
aI6
aI6
aI6
aI6
aI5
aI3
aI4
aI4
aI5
aI5
aI6
aI5
aI5
aI5
aI6
aI6
aI6
aI8
aI6
aI4
aI6
aI5
aI4
aI4
aI3
aI2
aI3
aI3
aI2
aI2
aI1
aI2
aI2
aI1
aI2
aI2
aI2
aI2
aI7
aI5
aI6
aI5
aI5
aI6
aI3
aI3
aI3
aI3
aI5
aI5
aI9
aI9
aI7
aI4
aI7
aI6
aI6
aI5
aI4
aI4
aI3
aI3
aI2
aI2
aI4
aI5
aI5
aI5
aI6
aI6
aI6
aI5
aI7
aI7
aI7
aI6
aI6
aI5
aI6
aI6
aI7
aI6
aI6
aI6
aI8
aI9
aI8
aI8
aI6
aI6
aI8
aI9
aI9
aI8
aI10
aI8
aI8
aI5
aI9
aI10
aI8
aI6
aI6
aI5
aI4
aI6
aI6
aI7
aI6
aI4
aI6
aI7
aI6
aI8
aI7
aI7
aI8
aI8
aI5
aI6
aI8
aI9
aI9
aI7
aI7
aI4
aI4
aI3
aI4
aI3
aI5
aI5
aI5
aI5
aI5
aI5
aI6
aI6
aI5
aI5
aI6
aI7
aI4
aI3
aI3
aI4
aI5
aI5
aI5
aI3
aI3
aI4
aI4
aI2
aI5
aI5
aI5
aI3
aI9
aI11
aI12
aI10
aI10
aI10
aI8
aI7
aI5
aI5
aI4
aI4
aI4
aI4
aI5
aI5
aI8
aI10
aI11
aI11
aI9
aI10
aI8
aI7
aI7
aI7
aI6
aI6
aI9
aI9
aI6
aI10
aI9
aI9
aI10
aI7
aI6
aI6
aI9
aI8
aI8
aI7
aI8
aI5
aI4
aI5
aI5
aI4
aI5
aI7
aI4
aI4
aI3
aI3
aI4
aI4
aI6
aI7
aI7
aI6
aI8
aI6
aI3
aI3
aI6
aI6
aI4
aI5
aI7
aI9
aI9
aI5
aI6
aI7
aI6
aI4
aI4
aI3
aI5
aI4
aI5
aI5
aI6
aI5
aI5
aI6
aI6
aI4
aI5
aI5
aI5
aI7
aI5
aI5
aI6
aI6
aI7
aI8
aI7
aI7
aI4
aI4
aI4
aI4
aI7
aI6
aI6
aI3
aI4
aI5
aI3
aI5
aI8
aI9
aI8
aI7
aI7
aI9
aI8
aI8
aI9
aI8
aI7
aI6
aI6
aI6
aI6
aI5
aI5
aI5
aI6
aI7
aI7
aI7
aI8
aI6
aI7
aI7
aI7
aI7
aI9
aI10
aI10
aI8
aI11
aI9
aI11
aI11
aI11
aI7
aI10
aI9
aI8
aI8
aI6
aI5
aI5
aI5
aI5
aI6
aI9
aI9
aI8
aI8
aI8
aI8
aI9
aI7
aI6
aI5
aI5
aI5
aI5
aI5
aI5
aI5
aI6
aI8
aI9
aI9
aI11
aI10
aI9
aI7
aI4
aI5
aI5
aI5
aI7
aI9
aI8
aI8
aI11
aI11
aI10
aI9
aI9
aI10
aI10
aI11
aI11
aI11
aI10
aI9
aI9
aI8
aI8
aI8
aI7
aI7
aI7
aI8
aI7
aI6
aI9
aI8
aI11
aI11
aI10
aI10
aI11
aI12
aI13
aI10
aI10
aI11
aI10
aI11
aI13
aI12
aI11
aI10
aI10
aI9
aI10
aI9
aI9
aI9
aI9
aI8
aI8
aI8
aI9
aI7
aI8
aI9
aI9
aI8
aI8
aI8
aI7
aI5
aI5
aI6
aI6
aI7
aI6
aI3
aI4
aI6
aI4
aI3
aI2
aI1
aI1
aI2
aI2
aI0
aI1
aI2
aI2
aI2
aI5
aI5
aI6
aI5
aI6
aI8
aI7
aI7
aI8
aI5
aI6
aI5
aI4
aI6
aI6
aI7
aI7
aI6
aI6
aI6
aI7
aI7
aI5
aI3
aI3
aI2
aI3
aI3
aI3
aI5
aI6
aI5
aI6
aI6
aI6
aI5
aI4
aI4
aI5
aI5
aI6
aI6
aI6
aI6
aI7
aI7
aI6
aI6
aI6
aI5
aI4
aI5
aI6
aI7
aI8
aI9
aI11
aI11
aI10
aI8
aI10
aI11
aI11
aI12
aI11
aI10
aI9
aI9
aI10
aI7
aI7
aI7
aI9
aI6
aI7
aI7
aI7
aI6
aI8
aI6
aI8
aI9
aI10
aI8
aI7
aI5
aI5
aI5
aI5
aI5
aI4
aI4
aI7
aI7
aI10
aI10
aI12
aI11
aI12
aI12
aI11
aI11
aI8
aI8
aI9
aI9
aI10
aI9
aI9
aI7
aI8
aI10
aI10
aI10
aI9
aI7
aI13
aI14
aI11
aI11
aI9
aI8
aI9
aI9
aI10
aI9
aI7
aI8
aI9
aI8
aI11
aI11
aI10
aI10
aI10
aI8
aI8
aI8
aI9
aI8
aI7
aI7
aI7
aI7
aI7
aI6
aI4
aI3
aI3
aI2
aI3
aI3
aI5
aI6
aI6
aI4
aI4
aI3
aI2
aI3
aI4
aI4
aI3
aI3
aI7
aI9
aI8
aI7
aI5
aI7
aI5
aI4
aI6
aI6
aI7
aI4
aI6
aI6
aI9
aI10
aI8
aI8
aI8
aI7
aI9
aI10
aI10
aI11
aI12
aI12
aI7
aI7
aI7
aI8
aI8
aI8
aI8
aI9
aI10
aI8
aI10
aI10
aI12
aI11
aI12
aI11
aI7
aI12
aI12
aI12
aI11
aI10
aI10
aI10
aI8
aI10
aI11
aI13
aI11
aI11
aI10
aI8
aI8
aI8
aI9
aI10
aI10
aI9
aI9
aI10
aI9
aI7
aI8
aI9
aI8
aI8
aI8
aI8
aI8
aI8
aI11
aI11
aI11
aI11
aI12
aI9
aI10
aI8
aI9
aI8
aI7
aI9
aI8
aI5
aI4
aI2
aI4
aI5
aI6
aI7
aI7
aI7
aI7
aI12
aI12
aI10
aI8
aI8
aI9
aI7
aI7
aI7
aI10
aI7
aI6
aI5
aI6
aI6
aI6
aI6
aI7
aI6
aI7
aI5
aI7
aI7
aI10
aI10
aI10
aI11
aI10
aI10
aI12
aI14
aI11
aI9
aI11
aI9
aI9
aI11
aI13
aI13
aI13
aI12
aI8
aI9
aI10
aI10
aI12
aI13
aI10
aI9
aI15
aI13
aI11
aI10
aI10
aI12
aI10
aI12
aI18
aI16
aI13
aI12
aI13
aI15
aI15
aI14
aI13
aI10
aI9
aI9
aI10
aI8
aI8
aI8
aI9
aI6
aI6
aI5
aI9
aI10
aI7
aI6
aI11
aI9
aI7
aI5
aI8
aI9
aI10
aI9
aI7
aI7
aI8
aI10
aI9
aI8
aI6
aI5
aI7
aI6
aI6
aI6
aI10
aI11
aI8
aI5
aI9
aI9
aI9
aI11
aI10
aI7
aI7
aI5
aI7
aI9
aI7
aI8
aI10
aI9
aI7
aI7
aI10
aI9
aI7
aI8
aI13
aI9
aI8
aI7
aI10
aI12
aI10
aI11
aI14
aI11
aI10
aI10
aI10
aI9
aI8
aI6
aI7
aI7
aI8
aI9
aI13
aI11
aI10
aI9
aI10
aI6
aI5
aI6
aI7
aI6
aI6
aI6
aI14
aI13
aI11
aI11
aI12
aI13
aI9
aI4
aI5
aI5
aI6
aI4
aI6
aI6
aI8
aI7
aI10
aI7
aI6
aI6
aI10
aI8
aI8
aI5
aI6
aI6
aI6
aI5
aI6
aI8
aI8
aI7
aI11
aI9
aI12
aI11
aI14
aI11
aI13
aI16
aI13
aI14
aI12
aI11
aI10
aI11
aI11
aI16
aI12
aI11
aI11
aI10
aI8
aI8
aI8
aI7
aI11
aI10
aI9
aI7
aI9
aI8
aI8
aI7
aI14
aI14
aI12
aI15
aI15
aI13
aI13
aI10
aI13
aI12
aI10
aI11
aI12
aI13
aI12
aI12
aI12
aI11
aI11
aI11
aI12
aI11
aI10
aI10
aI12
aI11
aI11
aI9
aI12
aI12
aI13
aI13
aI14
aI13
aI9
aI6
aI13
aI12
aI10
aI9
aI10
aI11
aI10
aI7
aI6
aI7
aI7
aI6
aI11
aI10
aI7
aI7
aI10
aI8
aI5
aI5
aI11
aI10
aI12
aI12
aI16
aI16
aI13
aI10
aI14
aI11
aI10
aI9
aI13
aI11
aI8
aI6
aI7
aI7
aI6
aI6
aI7
aI7
aI8
aI11
aI16
aI18
aI16
aI14
aI10
aI12
aI8
aI6
aI12
aI8
aI9
aI7
aI7
aI7
aI8
aI10
aI11
aI13
aI10
aI11
aI11
aI10
aI7
aI5
aI10
aI9
aI10
aI8
aI9
aI8
aI5
aI5
aI8
aI5
aI8
aI10
aI14
aI13
aI11
aI11
aI13
aI13
aI13
aI13
aI14
aI11
aI8
aI7
aI9
aI9
aI10
aI9
aI12
aI10
aI8
aI4
aI8
aI7
aI6
aI6
aI9
aI11
aI11
aI13
aI14
aI13
aI15
aI11
aI13
aI10
aI8
aI7
aI12
aI11
aI10
aI6
aI8
aI9
aI9
aI11
aI11
aI11
aI12
aI11
aI14
aI14
aI12
aI11
aI13
aI9
aI12
aI16
aI17
aI14
aI12
aI10
aI15
aI14
aI13
aI13
aI11
aI12
aI11
aI11
aI14
aI13
aI13
aI10
aI13
aI13
aI9
aI7
aI15
aI14
aI13
aI14
aI13
aI11
aI10
aI13
aI14
aI13
aI12
aI11
aI14
aI14
aI12
aI12
aI12
aI14
aI11
aI10
aI14
aI12
aI10
aI8
aI5
aI6
aI3
aI5
aI7
aI7
aI5
aI7
aI12
aI11
aI9
aI14
aI15
aI12
aI12
aI11
aI12
aI13
aI12
aI10
aI8
aI7
aI9
aI8
aI11
aI10
aI10
aI11
aI11
aI11
aI10
aI10
aI8
aI6
aI6
aI6
aI11
aI9
aI8
aI8
aI8
aI7
aI5
aI4
aI8
aI8
aI7
aI10
aI11
aI11
aI11
aI8
aI11
aI8
aI6
aI6
aI9
aI7
aI5
aI5
aI6
aI6
aI5
aI6
aI12
aI12
aI8
aI8
aI7
aI8
aI8
aI8
aI8
aI9
aI6
aI6
aI7
aI8
aI6
aI4
aI5
aI5
aI5
aI8
aI11
aI9
aI6
aI4
aI11
aI11
aI13
aI10
aI12
aI13
aI9
aI6
aI11
aI11
aI8
aI7
aI6
aI8
aI7
aI8
aI10
aI9
aI7
aI7
aI10
aI10
aI9
aI8
aI7
aI7
aI6
aI3
aI7
aI7
aI9
aI8
aI8
aI6
aI5
aI7
aI8
aI9
aI8
aI7
aI8
aI8
aI6
aI7
aI12
aI10
aI6
aI7
aI9
aI9
aI10
aI10
aI7
aI8
aI7
aI7
aI12
aI11
aI11
aI11
aI12
aI12
aI12
aI13
aI12
aI12
aI12
aI10
aI10
aI12
aI13
aI11
aI13
aI15
aI13
aI11
aI12
aI12
aI12
aI11
aI11
aI9
aI9
aI8
aI14
aI13
aI12
aI7
aI14
aI13
aI8
aI7
aI9
aI9
aI7
aI5
aI10
aI10
aI11
aI15
aI13
aI10
aI9
aI7
aI12
aI12
aI13
aI9
aI13
aI13
aI11
aI9
aI8
aI7
aI7
aI7
aI11
aI11
aI11
aI14
aI15
aI15
aI12
aI8
aI13
aI13
aI12
aI12
aI12
aI11
aI12
aI13
aI10
aI10
aI9
aI13
aI11
aI8
aI9
aI8
aI7
aI8
aI8
aI10
aI14
aI10
aI6
aI6
aI9
aI9
aI8
aI8
aI8
aI9
aI9
aI8
aI11
aI11
aI7
aI8
aI7
aI5
aI5
aI5
aI8
aI5
aI3
aI3
aI6
aI5
aI5
aI6
aI10
aI9
aI7
aI8
aI14
aI11
aI6
aI4
aI8
aI7
aI7
aI5
aI10
aI9
aI8
aI8
aI6
aI3
aI3
aI4
aI6
aI5
aI4
aI4
aI6
aI6
aI6
aI6
aI11
aI9
aI7
aI8
aI13
aI12
aI11
aI9
aI12
aI13
aI10
aI13
aI12
aI12
aI8
aI10
aI6
aI6
aI7
aI7
aI12
aI8
aI7
aI7
aI8
aI6
aI5
aI3
aI6
aI6
aI4
aI5
aI8
aI9
aI7
aI5
aI9
aI8
aI10
aI11
aI12
aI9
aI6
aI6
aI10
aI10
aI10
aI9
aI12
aI10
aI8
aI7
aI9
aI9
aI9
aI10
aI13
aI12
aI9
aI13
aI15
aI13
aI11
aI11
aI13
aI12
aI9
aI10
aI10
aI10
aI7
aI6
aI8
aI4
aI3
aI2
aI6
aI6
aI5
aI5
aI10
aI9
aI4
aI5
aI5
aI8
aI5
aI7
aI12
aI9
aI9
aI7
aI10
aI9
aI7
aI9
aI10
aI9
aI6
aI4
aI8
aI7
aI6
aI9
aI13
aI10
aI8
aI8
aI9
aI9
aI9
aI9
aI13
aI13
aI9
aI8
aI8
aI7
aI8
aI9
aI9
aI9
aI9
aI10
aI14
aI12
aI10
aI8
aI10
aI10
aI11
aI9
aI9
aI10
aI10
aI8
aI11
aI10
aI9
aI7
aI10
aI9
aI6
aI7
aI11
aI10
aI7
aI6
aI8
aI11
aI10
aI9
aI11
aI11
aI11
aI10
aI16
aI14
aI10
aI11
aI15
aI12
aI10
aI7
aI13
aI12
aI8
aI5
aI7
aI8
aI6
aI4
aI5
aI6
aI3
aI4
aI9
aI9
aI4
aI5
aI6
aI6
aI4
aI5
aI7
aI6
aI6
aI4
aI4
aI7
aI7
aI3
aI8
aI8
aI6
aI6
aI9
aI9
aI9
aI11
aI15
aI16
aI12
aI10
aI13
aI8
aI6
aI6
aI14
aI12
aI6
aI5
aI5
aI6
aI10
aI10
aI15
aI15
aI13
aI9
aI11
aI9
aI8
aI9
aI13
aI11
aI9
aI8
aI11
aI10
aI10
aI7
aI12
aI9
aI8
aI12
aI12
aI13
aI11
aI11
aI15
aI13
aI12
aI9
aI13
aI14
aI14
aI11
aI15
aI12
aI12
aI10
aI12
aI8
aI8
aI8
aI10
aI10
aI8
aI7
aI11
aI9
aI7
aI7
aI10
aI10
aI8
aI5
aI10
aI10
aI9
aI7
aI8
aI8
aI7
aI8
aI8
aI10
aI8
aI11
aI15
aI16
aI13
aI15
aI17
aI14
aI11
aI8
aI14
aI12
aI12
aI13
aI12
aI11
aI10
aI10
aI10
aI9
aI11
aI11
aI15
aI10
aI11
aI9
aI13
aI11
aI10
aI10
aI15
aI13
aI11
aI6
aI8
aI8
aI6
aI4
aI6
aI8
aI7
aI6
aI8
aI7
aI4
aI4
aI3
aI3
aI3
aI4
aI6
aI7
aI6
aI5
aI7
aI6
aI6
aI7
aI9
aI7
aI6
aI6
aI4
aI5
aI6
aI5
aI4
aI7
aI7
aI6
aI11
aI11
aI9
aI6
aI10
aI10
aI12
aI11
aI8
aI9
aI10
aI10
aI15
aI12
aI12
aI11
aI15
aI15
aI15
aI13
aI17
aI13
aI11
aI11
aI15
aI12
aI11
aI8
aI12
aI11
aI10
aI11
aI11
aI11
aI11
aI9
aI13
aI15
aI13
aI8
aI10
aI8
aI4
aI5
aI7
aI8
aI11
aI10
aI11
aI12
aI9
aI10
aI11
aI9
aI7
aI9
aI13
aI11
aI7
aI9
aI7
aI7
aI7
aI5
aI9
aI10
aI8
aI2
aI5
aI5
aI5
aI4
aI12
aI15
aI13
aI13
aI13
aI10
aI7
aI8
aI11
aI11
aI11
aI12
aI15
aI10
aI9
aI8
aI12
aI13
aI13
aI12
aI14
aI11
aI11
aI9
aI10
aI9
aI5
aI6
aI10
aI8
aI7
aI6
aI11
aI12
aI8
aI6
aI8
aI8
aI9
aI8
aI7
aI7
aI5
aI5
aI6
aI6
aI6
aI7
aI9
aI7
aI5
aI6
aI7
aI6
aI4
aI4
aI6
aI6
aI2
aI4
aI7
aI8
aI7
aI7
aI7
aI8
aI10
aI9
aI10
aI10
aI7
aI7
aI5
aI4
aI6
aI7
aI8
aI5
aI4
aI2
aI5
aI5
aI5
aI4
aI4
aI6
aI5
aI6
aI8
aI7
aI6
aI3
aI8
aI7
aI5
aI7
aI7
aI8
aI5
aI2
aI3
aI4
aI4
aI6
aI8
aI6
aI6
aI7
aI11
aI10
aI9
aI9
aI10
aI11
aI5
aI6
aI7
aI8
aI11
aI7
aI8
aI7
aI9
aI10
aI9
aI8
aI10
aI9
aI6
aI5
aI6
aI5
aI4
aI9
aI7
aI8
aI11
aI10
aI8
aI5
aI7
aI10
aI9
aI6
aI5
aI7
aI6
aI9
aI6
aI6
aI5
aI5
aI5
aI5
aI7
aI8
aI8
aI8
aI7
aI7
aI6
aI6
aI6
aI4
aI9
aI9
aI9
aI9
aI6
aI7
aI9
aI10
aI12
aI10
aI9
aI10
aI9
aI7
aI12
aI11
aI13
aI16
aI13
aI11
aI10
aI10
aI10
aI10
aI10
aI8
aI8
aI9
aI11
aI8
aI9
aI8
aI8
aI9
aI7
aI6
aI4
aI4
aI3
aI6
aI6
aI6
aI7
aI10
aI7
aI6
aI6
aI7
aI5
aI5
aI8
aI10
aI10
aI9
aI13
aI12
aI8
aI7
aI7
aI7
aI5
aI7
aI6
aI10
aI9
aI7
aI5
aI6
aI6
aI9
aI13
aI12
aI8
aI11
aI7
aI10
aI7
aI9
aI7
aI6
aI4
aI6
aI7
aI6
aI8
aI7
aI10
aI10
aI11
aI10
aI10
aI9
aI9
aI11
aI11
aI9
aI8
aI9
aI8
aI11
aI9
aI8
aI6
aI8
aI8
aI9
aI8
aI12
aI12
aI8
aI8
aI5
aI4
aI7
aI10
aI7
aI4
aI11
aI11
aI10
aI8
aI8
aI10
aI10
aI13
aI13
aI11
aI10
aI13
aI12
aI10
aI13
aI10
aI12
aI8
aI8
aI7
aI3
aI8
aI7
aI6
aI7
aI7
aI8
aI4
aI5
aI7
aI7
aI6
aI7
aI3
aI4
aI3
aI4
aI4
aI6
aI8
aI8
aI8
aI10
aI9
aI15
aI13
aI7
aI7
aI9
aI11
aI14
aI13
aI12
aI12
aI11
aI12
aI10
aI7
aI10
aI11
aI8
aI5
aI9
aI8
aI5
aI6
aI7
aI6
aI11
aI11
aI10
aI12
aI10
aI11
aI10
aI7
aI11
aI7
aI5
aI6
aI7
aI12
aI9
aI7
aI5
aI11
aI8
aI13
aI11
aI12
aI12
aI10
aI9
aI10
aI10
aI9
aI9
aI9
aI12
aI7
aI9
aI10
aI13
aI10
aI12
aI12
aI8
aI7
aI7
aI8
aI10
aI11
aI14
aI12
aI9
aI11
aI9
aI8
aI9
aI5
aI4
aI3
aI6
aI7
aI8
aI9
aI10
aI10
aI8
aI8
aI10
aI11
aI7
aI7
aI7
aI8
aI7
aI6
aI6
aI6
aI8
aI6
aI10
aI7
aI5
aI4
aI4
aI3
aI4
aI6
aI5
aI4
aI3
aI1
aI4
aI4
aI4
aI5
aI5
aI8
aI10
aI7
aI7
aI10
aI13
aI13
aI11
aI16
aI13
aI11
aI11
aI11
aI11
aI16
aI12
aI8
aI6
aI11
aI11
aI11
aI7
aI6
aI4
aI5
aI6
aI5
aI9
aI10
aI11
aI15
aI12
aI12
aI14
aI13
aI11
aI9
aI12
aI8
aI10
aI10
aI9
aI9
aI12
aI9
aI12
aI9
aI13
aI11
aI9
aI8
aI11
aI9
aI9
aI10
aI11
aI9
aI7
aI6
aI5
aI5
aI8
aI7
aI10
aI8
aI8
aI6
aI8
aI8
aI6
aI5
aI4
aI4
aI4
aI5
aI5
aI4
aI4
aI5
aI6
aI6
aI7
aI8
aI8
aI8
aI11
aI8
aI6
aI7
aI13
aI14
aI11
aI11
aI10
aI10
aI12
aI11
aI11
aI13
aI11
aI10
aI12
aI11
aI9
aI9
aI14
aI15
aI12
aI8
aI10
aI10
aI10
aI11
aI8
aI9
aI8
aI7
aI9
aI8
aI13
aI11
aI10
aI9
aI11
aI12
aI11
aI12
aI14
aI10
aI11
aI9
aI12
aI14
aI11
aI7
aI10
aI12
aI14
aI12
aI13
aI9
aI10
aI8
aI8
aI8
aI9
aI8
aI12
aI8
aI9
aI9
aI12
aI10
aI12
aI14
aI13
aI10
aI8
aI9
aI11
aI7
aI8
aI5
aI8
aI5
aI8
aI9
aI6
aI8
aI8
aI4
aI3
aI3
aI6
aI7
aI8
aI8
aI11
aI9
aI11
aI9
aI6
aI3
aI7
aI4
aI9
aI9
aI9
aI6
aI4
aI5
aI10
aI5
aI7
aI7
aI8
aI5
aI6
aI4
aI2
aI5
aI9
aI7
aI6
aI6
aI9
aI7
aI8
aI8
aI5
aI7
aI6
aI6
aI7
aI7
aI10
aI9
aI10
aI10
aI10
aI9
aI13
aI13
aI14
aI12
aI16
aI15
aI15
aI15
aI13
aI12
aI14
aI12
aI9
aI10
aI12
aI12
aI11
aI7
aI8
aI9
aI12
aI8
aI11
aI9
aI14
aI11
aI15
aI13
aI14
aI14
aI15
aI10
aI12
aI12
aI14
aI12
aI9
aI10
aI8
aI6
aI7
aI6
aI8
aI7
aI6
aI5
aI8
aI7
aI10
aI10
aI11
aI10
aI7
aI9
aI12
aI15
aI17
aI17
aI15
aI14
aI13
aI10
aI9
aI11
aI9
aI8
aI6
aI6
aI8
aI7
aI7
aI8
aI9
aI7
aI8
aI8
aI8
aI6
aI8
aI8
aI11
aI12
aI14
aI14
aI15
aI15
aI15
aI13
aI12
aI10
aI13
aI10
aI11
aI10
aI10
aI12
aI15
aI14
aI15
aI13
aI13
aI12
aI11
aI10
aI11
aI11
aI13
aI11
aI11
aI8
aI13
aI13
aI14
aI11
aI10
aI8
aI9
aI8
aI13
aI13
aI12
aI9
aI9
aI8
aI7
aI9
aI13
aI14
aI15
aI14
aI16
aI14
aI13
aI14
aI11
aI12
aI12
aI8
aI9
aI9
aI13
aI11
aI9
aI7
aI11
aI10
aI13
aI10
aI11
aI12
aI14
aI15
aI17
aI14
aI16
aI16
aI14
aI10
aI12
aI13
aI14
aI9
aI11
aI8
aI9
aI7
aI7
aI6
aI9
aI7
aI10
aI10
aI7
aI7
aI9
aI9
aI10
aI6
aI9
aI8
aI8
aI8
aI10
aI8
aI11
aI6
aI7
aI8
aI7
aI5
aI4
aI3
aI5
aI5
aI8
aI8
aI8
aI7
aI9
aI9
aI15
aI13
aI13
aI10
aI10
aI10
aI11
aI8
aI9
aI10
aI9
aI9
aI10
aI11
aI13
aI10
aI10
aI8
aI12
aI11
aI14
aI12
aI11
aI8
aI12
aI12
aI10
aI8
aI6
aI9
aI8
aI10
aI7
aI8
aI12
aI11
aI9
aI7
aI9
aI9
aI8
aI8
aI11
aI11
aI11
aI11
aI13
aI10
aI11
aI10
aI10
aI7
aI12
aI13
aI13
aI12
aI12
aI11
aI11
aI10
aI15
aI14
aI10
aI9
aI9
aI10
aI12
aI9
aI11
aI10
aI11
aI11
aI11
aI11
aI9
aI9
aI5
aI8
aI11
aI9
aI10
aI13
aI15
aI12
aI15
aI12
aI14
aI14
aI14
aI13
aI15
aI14
aI12
aI10
aI16
aI11
aI13
aI14
aI16
aI12
aI11
aI9
aI13
aI13
aI12
aI12
aI10
aI7
aI15
aI16
aI14
aI11
aI13
aI12
aI15
aI15
aI14
aI13
aI17
aI12
aI13
aI12
aI12
aI11
aI13
aI10
aI13
aI11
aI15
aI14
aI15
aI13
aI13
aI11
aI13
aI9
aI13
aI10
aI11
aI12
aI11
aI8
aI7
aI5
aI6
aI4
aI5
aI6
aI7
aI5
aI6
aI4
aI1
aaa(lp4
S'12 18 2004 15 36 00'
p5
a(lp6
I1
aI1
aI2
aI2
aI3
aI4
aI5
aI5
aI6
aI7
aI7
aI8
aI10
aI10
aI12
aI12
aI11
aI11
aI10
aI7
aI7
aI7
aI9
aI9
aI9
aI8
aI6
aI6
aI6
aI6
aI7
aI5
aI4
aI3
aI3
aI3
aI3
aI4
aI4
aI3
aI4
aI4
aI1
aI2
aI2
aI2
aI3
aI4
aI5
aI5
aI5
aI4
aI4
aI6
aI6
aI5
aI4
aI4
aI6
aI6
aI6
aI5
aI8
aI8
aI7
aI6
aI7
aI8
aI5
aI5
aI5
aI6
aI5
aI5
aI7
aI8
aI6
aI7
aI7
aI5
aI3
aI4
aI4
aI4
aI4
aI2
aI4
aI4
aI3
aI3
aI3
aI2
aI3
aI7
aI7
aI8
aI8
aI7
aI6
aI5
aI6
aI6
aI6
aI4
aI3
aI3
aI3
aI3
aI2
aI4
aI3
aI3
aI4
aI5
aI6
aI4
aI4
aI4
aI6
aI5
aI4
aI4
aI4
aI4
aI5
aI7
aI7
aI6
aI4
aI3
aI5
aI5
aI5
aI5
aI7
aI5
aI4
aI3
aI3
aI3
aI3
aI3
aI6
aI5
aI6
aI4
aI4
aI5
aI5
aI4
aI6
aI7
aI7
aI10
aI10
aI9
aI9
aI9
aI10
aI10
aI8
aI9
aI9
aI7
aI5
aI5
aI7
aI6
aI6
aI5
aI9
aI10
aI7
aI6
aI6
aI6
aI6
aI8
aI6
aI10
aI9
aI9
aI9
aI10
aI9
aI7
aI6
aI5
aI5
aI5
aI6
aI5
aI4
aI5
aI6
aI6
aI6
aI6
aI8
aI8
aI5
aI4
aI5
aI5
aI6
aI6
aI8
aI7
aI5
aI4
aI5
aI5
aI5
aI5
aI8
aI6
aI6
aI6
aI4
aI4
aI3
aI3
aI3
aI3
aI2
aI3
aI3
aI4
aI3
aI3
aI5
aI5
aI5
aI6
aI8
aI8
aI7
aI7
aI7
aI7
aI6
aI4
aI4
aI4
aI4
aI4
aI4
aI5
aI4
aI4
aI5
aI5
aI5
aI6
aI7
aI5
aI4
aI3
aI5
aI6
aI7
aI7
aI7
aI7
aI7
aI6
aI6
aI5
aI4
aI4
aI5
aI4
aI3
aI5
aI7
aI8
aI9
aI10
aI10
aI9
aI8
aI6
aI9
aI8
aI8
aI7
aI7
aI7
aI5
aI5
aI5
aI4
aI3
aI3
aI3
aI2
aI2
aI2
aI2
aI3
aI5
aI6
aI5
aI4
aI3
aI3
aI3
aI3
aI4
aI4
aI6
aI6
aI6
aI5
aI5
aI5
aI7
aI7
aI7
aI7
aI7
aI7
aI7
aI8
aI9
aI7
aI11
aI10
aI9
aI9
aI10
aI11
aI9
aI10
aI10
aI11
aI11
aI14
aI14
aI13
aI14
aI12
aI17
aI17
aI14
aI13
aI12
aI10
aI10
aI9
aI9
aI7
aI5
aI5
aI5
aI5
aI5
aI6
aI6
aI5
aI6
aI6
aI5
aI4
aI3
aI4
aI5
aI4
aI3
aI5
aI6
aI6
aI8
aI7
aI7
aI5
aI5
aI3
aI3
aI3
aI3
aI3
aI4
aI4
aI4
aI5
aI6
aI6
aI5
aI2
aI3
aI2
aI2
aI3
aI3
aI4
aI4
aI3
aI3
aI3
aI2
aI4
aI6
aI5
aI5
aI5
aI4
aI5
aI4
aI5
aI5
aI4
aI4
aI5
aI5
aI7
aI6
aI5
aI8
aI8
aI7
aI5
aI6
aI6
aI7
aI7
aI8
aI8
aI7
aI6
aI6
aI6
aI9
aI9
aI7
aI5
aI6
aI6
aI7
aI8
aI8
aI9
aI6
aI7
aI4
aI2
aI1
aI1
aI1
aI1
aI4
aI3
aI3
aI5
aI6
aI7
aI5
aI5
aI6
aI7
aI8
aI8
aI8
aI8
aI9
aI8
aI10
aI8
aI7
aI9
aI9
aI9
aI8
aI7
aI7
aI6
aI6
aI4
aI6
aI7
aI6
aI6
aI8
aI8
aI8
aI7
aI7
aI7
aI8
aI9
aI9
aI9
aI10
aI8
aI9
aI11
aI11
aI11
aI10
aI10
aI9
aI6
aI7
aI5
aI7
aI8
aI9
aI6
aI4
aI3
aI4
aI4
aI4
aI3
aI3
aI3
aI3
aI2
aI3
aI3
aI4
aI4
aI6
aI7
aI9
aI11
aI13
aI15
aI13
aI12
aI8
aI8
aI6
aI6
aI10
aI10
aI11
aI8
aI6
aI6
aI6
aI6
aI7
aI6
aI6
aI7
aI9
aI10
aI9
aI7
aI10
aI10
aI9
aI10
aI9
aI7
aI6
aI6
aI6
aI6
aI6
aI6
aI4
aI4
aI3
aI4
aI3
aI2
aI2
aI3
aI4
aI5
aI7
aI8
aI6
aI7
aI7
aI5
aI4
aI3
aI4
aI6
aI6
aI6
aI6
aI8
aI8
aI8
aI9
aI9
aI9
aI10
aI12
aI13
aI10
aI11
aI9
aI9
aI9
aI11
aI11
aI13
aI14
aI13
aI13
aI13
aI11
aI9
aI13
aI13
aI11
aI9
aI9
aI6
aI7
aI4
aI3
aI2
aI3
aI4
aI4
aI3
aI6
aI5
aI5
aI5
aI4
aI6
aI7
aI9
aI9
aI7
aI8
aI6
aI9
aI6
aI7
aI9
aI9
aI8
aI7
aI5
aI3
aI3
aI3
aI3
aI4
aI5
aI5
aI4
aI10
aI10
aI10
aI10
aI10
aI8
aI8
aI7
aI9
aI9
aI9
aI7
aI10
aI9
aI10
aI9
aI10
aI10
aI10
aI7
aI7
aI6
aI6
aI8
aI8
aI9
aI9
aI8
aI7
aI8
aI8
aI8
aI9
aI10
aI10
aI9
aI10
aI10
aI8
aI6
aI7
aI8
aI5
aI5
aI5
aI5
aI4
aI4
aI3
aI2
aI3
aI2
aI2
aI3
aI2
aI3
aI4
aI3
aI3
aI3
aI4
aI8
aI9
aI11
aI11
aI10
aI13
aI10
aI11
aI9
aI9
aI8
aI6
aI6
aI6
aI6
aI10
aI9
aI9
aI8
aI10
aI10
aI10
aI10
aI10
aI10
aI9
aI8
aI9
aI11
aI10
aI8
aI7
aI6
aI6
aI7
aI7
aI8
aI8
aI6
aI8
aI6
aI7
aI5
aI9
aI10
aI11
aI10
aI8
aI5
aI5
aI4
aI5
aI5
aI7
aI6
aI8
aI7
aI6
aI8
aI9
aI9
aI8
aI5
aI5
aI5
aI6
aI6
aI8
aI8
aI8
aI6
aI8
aI8
aI8
aI8
aI10
aI12
aI11
aI10
aI10
aI9
aI8
aI5
aI6
aI6
aI4
aI5
aI6
aI5
aI5
aI5
aI9
aI8
aI8
aI8
aI10
aI12
aI9
aI10
aI10
aI12
aI12
aI11
aI10
aI8
aI8
aI6
aI6
aI7
aI7
aI8
aI8
aI7
aI6
aI5
aI8
aI8
aI9
aI6
aI7
aI10
aI10
aI9
aI12
aI11
aI10
aI6
aI5
aI4
aI5
aI4
aI6
aI5
aI7
aI7
aI11
aI11
aI11
aI9
aI9
aI7
aI6
aI7
aI6
aI9
aI9
aI6
aI6
aI7
aI6
aI5
aI4
aI4
aI6
aI6
aI5
aI5
aI5
aI3
aI7
aI5
aI7
aI6
aI6
aI6
aI5
aI5
aI7
aI8
aI7
aI6
aI6
aI6
aI5
aI4
aI4
aI5
aI5
aI6
aI6
aI5
aI4
aI3
aI4
aI4
aI4
aI6
aI6
aI6
aI6
aI5
aI6
aI6
aI8
aI4
aI5
aI6
aI5
aI5
aI6
aI4
aI6
aI5
aI4
aI5
aI6
aI8
aI8
aI7
aI6
aI5
aI6
aI5
aI4
aI6
aI5
aI5
aI5
aI3
aI3
aI2
aI4
aI2
aI4
aI7
aI5
aI5
aI4
aI7
aI6
aI5
aI5
aI5
aI5
aI6
aI8
aI8
aI6
aI7
aI9
aI8
aI6
aI5
aI4
aI3
aI3
aI0
aI1
aI2
aI4
aI4
aI7
aI8
aI7
aI8
aI9
aI10
aI8
aI6
aI7
aI7
aI10
aI14
aI14
aI13
aI12
aI12
aI12
aI10
aI8
aI8
aI10
aI7
aI6
aI7
aI8
aI8
aI9
aI8
aI7
aI8
aI9
aI11
aI13
aI12
aI10
aI9
aI7
aI8
aI8
aI6
aI7
aI8
aI7
aI7
aI4
aI3
aI4
aI4
aI2
aI4
aI5
aI4
aI7
aI7
aI6
aI8
aI9
aI9
aI11
aI10
aI10
aI10
aI9
aI9
aI7
aI8
aI8
aI9
aI12
aI10
aI8
aI5
aI3
aI3
aI2
aI2
aI5
aI5
aI6
aI7
aI8
aI8
aI8
aI7
aI8
aI8
aI9
aI10
aI12
aI12
aI9
aI8
aI6
aI6
aI5
aI7
aI8
aI8
aI10
aI8
aI10
aI10
aI9
aI9
aI10
aI10
aI11
aI11
aI12
aI12
aI10
aI10
aI11
aI12
aI13
aI13
aI13
aI12
aI12
aI13
aI14
aI13
aI13
aI15
aI15
aI13
aI12
aI11
aI12
aI12
aI12
aI12
aI14
aI14
aI15
aI14
aI15
aI14
aI16
aI18
aI20
aI18
aI17
aI16
aI19
aI19
aI17
aI16
aI19
aI15
aI12
aI10
aI8
aI9
aI9
aI11
aI9
aI8
aI10
aI11
aI14
aI15
aI13
aI9
aI9
aI7
aI6
aI6
aI4
aI5
aI6
aI6
aI9
aI9
aI8
aI5
aI8
aI10
aI11
aI14
aI13
aI13
aI13
aI13
aI13
aI13
aI11
aI10
aI11
aI11
aI8
aI7
aI8
aI9
aI10
aI9
aI13
aI15
aI13
aI17
aI19
aI20
aI18
aI16
aI17
aI15
aI15
aI17
aI18
aI16
aI16
aI16
aI15
aI15
aI12
aI11
aI14
aI15
aI14
aI12
aI15
aI13
aI13
aI11
aI13
aI13
aI14
aI20
aI19
aI17
aI19
aI17
aI16
aI16
aI15
aI17
aI15
aI14
aI12
aI14
aI8
aI6
aI7
aI7
aI8
aI5
aI4
aI5
aI7
aI7
aI9
aI6
aI7
aI8
aI6
aI9
aI9
aI9
aI9
aI9
aI14
aI11
aI11
aI11
aI9
aI7
aI8
aI9
aI11
aI8
aI8
aI9
aI11
aI13
aI12
aI11
aI13
aI13
aI10
aI7
aI7
aI5
aI5
aI5
aI8
aI9
aI10
aI10
aI10
aI10
aI10
aI10
aI11
aI9
aI6
aI5
aI5
aI4
aI5
aI7
aI11
aI12
aI12
aI9
aI10
aI10
aI11
aI10
aI12
aI11
aI10
aI9
aI10
aI11
aI11
aI9
aI9
aI8
aI8
aI9
aI10
aI7
aI7
aI8
aI9
aI10
aI11
aI11
aI11
aI11
aI12
aI11
aI12
aI11
aI11
aI11
aI14
aI12
aI11
aI11
aI9
aI8
aI8
aI8
aI10
aI7
aI6
aI6
aI8
aI8
aI6
aI5
aI8
aI7
aI6
aI4
aI7
aI6
aI8
aI7
aI10
aI10
aI9
aI8
aI10
aI6
aI6
aI11
aI11
aI10
aI10
aI5
aI10
aI9
aI7
aI10
aI9
aI7
aI7
aI6
aI8
aI8
aI7
aI10
aI9
aI6
aI4
aI5
aI10
aI10
aI10
aI12
aI11
aI7
aI6
aI10
aI11
aI9
aI10
aI6
aI6
aI6
aI8
aI11
aI12
aI11
aI9
aI5
aI9
aI9
aI9
aI9
aI10
aI9
aI9
aI7
aI11
aI8
aI5
aI5
aI4
aI7
aI7
aI5
aI9
aI9
aI5
aI5
aI8
aI8
aI7
aI7
aI7
aI7
aI5
aI4
aI7
aI5
aI3
aI4
aI8
aI10
aI6
aI6
aI9
aI8
aI5
aI3
aI5
aI3
aI3
aI4
aI4
aI6
aI7
aI5
aI9
aI10
aI6
aI7
aI6
aI5
aI3
aI3
aI2
aI3
aI4
aI4
aI10
aI11
aI12
aI8
aI10
aI6
aI5
aI6
aI11
aI10
aI12
aI11
aI12
aI10
aI11
aI11
aI9
aI9
aI10
aI11
aI14
aI12
aI9
aI5
aI9
aI10
aI8
aI10
aI12
aI10
aI12
aI9
aI11
aI10
aI10
aI6
aI8
aI7
aI7
aI8
aI11
aI11
aI8
aI13
aI17
aI14
aI13
aI13
aI15
aI16
aI13
aI12
aI14
aI14
aI13
aI13
aI12
aI7
aI7
aI7
aI10
aI10
aI9
aI8
aI10
aI13
aI12
aI10
aI13
aI14
aI9
aI7
aI7
aI9
aI7
aI9
aI11
aI11
aI12
aI11
aI14
aI14
aI13
aI11
aI14
aI9
aI6
aI5
aI9
aI8
aI7
aI8
aI7
aI6
aI4
aI6
aI8
aI9
aI10
aI6
aI7
aI11
aI13
aI14
aI15
aI11
aI9
aI11
aI8
aI8
aI10
aI13
aI10
aI10
aI7
aI11
aI12
aI12
aI11
aI10
aI11
aI11
aI10
aI13
aI11
aI13
aI13
aI13
aI13
aI11
aI12
aI12
aI9
aI10
aI8
aI7
aI10
aI10
aI11
aI11
aI15
aI16
aI10
aI13
aI13
aI10
aI8
aI6
aI9
aI10
aI9
aI6
aI11
aI11
aI9
aI10
aI9
aI10
aI11
aI10
aI15
aI13
aI10
aI10
aI9
aI8
aI8
aI8
aI9
aI6
aI7
aI9
aI10
aI8
aI8
aI10
aI13
aI16
aI15
aI15
aI13
aI12
aI11
aI13
aI13
aI11
aI11
aI11
aI12
aI9
aI11
aI8
aI8
aI8
aI8
aI8
aI13
aI12
aI10
aI6
aI11
aI10
aI8
aI4
aI10
aI10
aI8
aI6
aI11
aI9
aI7
aI6
aI5
aI4
aI4
aI5
aI7
aI6
aI5
aI4
aI6
aI6
aI7
aI7
aI13
aI13
aI10
aI9
aI11
aI10
aI10
aI9
aI14
aI11
aI11
aI10
aI12
aI9
aI8
aI9
aI10
aI10
aI10
aI10
aI11
aI6
aI7
aI8
aI6
aI7
aI7
aI6
aI6
aI7
aI6
aI6
aI10
aI10
aI8
aI11
aI9
aI6
aI6
aI8
aI10
aI12
aI8
aI7
aI12
aI9
aI6
aI6
aI7
aI7
aI6
aI6
aI6
aI6
aI6
aI5
aI10
aI8
aI5
aI2
aI7
aI7
aI5
aI5
aI12
aI9
aI7
aI7
aI9
aI9
aI9
aI9
aI9
aI9
aI9
aI9
aI13
aI10
aI7
aI6
aI8
aI10
aI11
aI11
aI12
aI10
aI7
aI8
aI8
aI8
aI7
aI8
aI11
aI8
aI6
aI7
aI11
aI7
aI5
aI3
aI9
aI10
aI9
aI9
aI11
aI11
aI10
aI9
aI8
aI7
aI8
aI8
aI13
aI9
aI8
aI7
aI10
aI10
aI8
aI10
aI11
aI11
aI9
aI9
aI13
aI12
aI9
aI6
aI9
aI8
aI9
aI8
aI12
aI10
aI8
aI10
aI10
aI8
aI7
aI6
aI10
aI10
aI8
aI7
aI10
aI9
aI9
aI9
aI11
aI11
aI12
aI13
aI14
aI14
aI7
aI5
aI8
aI8
aI8
aI9
aI5
aI9
aI8
aI6
aI11
aI11
aI13
aI13
aI12
aI13
aI12
aI9
aI13
aI12
aI10
aI3
aI8
aI3
aI4
aI4
aI8
aI8
aI7
aI6
aI7
aI6
aI6
aI6
aI10
aI10
aI5
aI3
aI4
aI3
aI4
aI6
aI12
aI8
aI7
aI7
aI8
aI7
aI8
aI8
aI9
aI9
aI6
aI5
aI11
aI13
aI12
aI11
aI12
aI13
aI13
aI13
aI11
aI9
aI9
aI7
aI11
aI7
aI7
aI7
aI9
aI9
aI5
aI4
aI8
aI7
aI7
aI8
aI10
aI9
aI7
aI8
aI10
aI10
aI8
aI5
aI10
aI12
aI12
aI12
aI16
aI15
aI10
aI7
aI11
aI7
aI9
aI8
aI11
aI11
aI7
aI5
aI7
aI9
aI6
aI5
aI7
aI6
aI5
aI9
aI13
aI13
aI11
aI6
aI7
aI8
aI8
aI9
aI8
aI9
aI8
aI10
aI12
aI11
aI11
aI10
aI9
aI6
aI5
aI3
aI7
aI5
aI5
aI5
aI9
aI11
aI10
aI10
aI15
aI13
aI13
aI11
aI12
aI11
aI7
aI5
aI4
aI5
aI2
aI2
aI4
aI3
aI2
aI2
aI7
aI10
aI6
aI5
aI7
aI5
aI3
aI1
aI6
aI6
aI2
aI2
aI4
aI6
aI6
aI7
aI11
aI12
aI10
aI11
aI11
aI11
aI11
aI9
aI10
aI7
aI8
aI8
aI14
aI8
aI9
aI10
aI14
aI14
aI12
aI11
aI12
aI12
aI8
aI9
aI12
aI8
aI5
aI2
aI3
aI6
aI7
aI10
aI13
aI8
aI5
aI4
aI8
aI7
aI7
aI5
aI7
aI7
aI8
aI5
aI5
aI4
aI2
aI2
aI8
aI10
aI6
aI8
aI12
aI14
aI14
aI12
aI15
aI12
aI9
aI10
aI11
aI11
aI8
aI6
aI8
aI7
aI8
aI7
aI9
aI7
aI5
aI6
aI11
aI8
aI4
aI5
aI12
aI12
aI11
aI12
aI16
aI15
aI12
aI10
aI9
aI11
aI10
aI13
aI13
aI11
aI7
aI6
aI11
aI10
aI9
aI9
aI13
aI13
aI12
aI12
aI16
aI14
aI13
aI14
aI17
aI15
aI12
aI13
aI14
aI13
aI13
aI11
aI11
aI9
aI9
aI9
aI8
aI7
aI7
aI6
aI8
aI7
aI6
aI6
aI9
aI7
aI7
aI8
aI13
aI9
aI7
aI7
aI9
aI5
aI3
aI6
aI6
aI7
aI6
aI4
aI5
aI5
aI7
aI8
aI9
aI9
aI7
aI6
aI8
aI6
aI6
aI5
aI9
aI9
aI8
aI6
aI5
aI4
aI5
aI2
aI3
aI2
aI2
aI2
aI5
aI6
aI4
aI5
aI10
aI10
aI8
aI10
aI11
aI11
aI9
aI9
aI13
aI11
aI11
aI8
aI9
aI9
aI7
aI5
aI7
aI6
aI6
aI4
aI9
aI7
aI6
aI8
aI12
aI12
aI13
aI11
aI16
aI14
aI11
aI13
aI11
aI14
aI12
aI7
aI7
aI6
aI4
aI3
aI9
aI10
aI8
aI7
aI10
aI9
aI7
aI4
aI6
aI5
aI5
aI7
aI8
aI7
aI6
aI7
aI11
aI9
aI7
aI11
aI14
aI12
aI9
aI6
aI6
aI6
aI3
aI2
aI6
aI5
aI4
aI4
aI8
aI6
aI5
aI4
aI8
aI9
aI10
aI9
aI10
aI8
aI7
aI10
aI10
aI8
aI8
aI7
aI10
aI10
aI10
aI6
aI10
aI9
aI9
aI7
aI11
aI10
aI6
aI7
aI13
aI12
aI8
aI3
aI7
aI11
aI10
aI14
aI17
aI14
aI11
aI11
aI12
aI11
aI9
aI10
aI11
aI11
aI7
aI6
aI8
aI8
aI8
aI8
aI14
aI12
aI8
aI7
aI14
aI12
aI9
aI8
aI11
aI12
aI11
aI11
aI12
aI11
aI9
aI10
aI12
aI13
aI11
aI11
aI13
aI11
aI9
aI6
aI8
aI8
aI8
aI9
aI10
aI9
aI5
aI5
aI6
aI5
aI5
aI5
aI11
aI8
aI4
aI4
aI6
aI6
aI6
aI2
aI11
aI10
aI9
aI8
aI7
aI6
aI7
aI6
aI6
aI6
aI6
aI7
aI9
aI10
aI9
aI10
aI12
aI12
aI11
aI11
aI15
aI14
aI12
aI12
aI14
aI12
aI10
aI7
aI9
aI9
aI9
aI11
aI9
aI10
aI9
aI6
aI9
aI9
aI7
aI7
aI10
aI10
aI6
aI5
aI10
aI9
aI4
aI1
aI7
aI8
aI4
aI6
aI8
aI7
aI5
aI6
aI5
aI8
aI7
aI7
aI10
aI8
aI8
aI8
aI10
aI10
aI9
aI12
aI13
aI12
aI12
aI10
aI14
aI11
aI8
aI8
aI9
aI10
aI11
aI10
aI8
aI10
aI14
aI11
aI12
aI13
aI14
aI15
aI12
aI9
aI8
aI6
aI8
aI6
aI8
aI7
aI8
aI6
aI5
aI11
aI12
aI16
aI14
aI14
aI15
aI14
aI13
aI12
aI16
aI17
aI14
aI13
aI12
aI12
aI14
aI13
aI10
aI11
aI12
aI14
aI10
aI9
aI14
aI11
aI9
aI8
aI6
aI7
aI9
aI9
aI7
aI9
aI10
aI12
aI9
aI7
aI10
aI6
aI7
aI8
aI7
aI7
aI8
aI9
aI10
aI9
aI5
aI8
aI10
aI7
aI9
aI6
aI4
aI7
aI7
aI7
aI8
aI9
aI7
aI4
aI4
aI4
aI5
aI6
aI7
aI8
aI7
aI4
aI4
aI3
aI8
aI7
aI6
aI7
aI5
aI4
aI5
aI6
aI7
aI5
aI5
aI4
aI6
aI5
aI7
aI9
aI8
aI7
aI10
aI8
aI6
aI7
aI8
aI4
aI6
aI6
aI6
aI6
aI4
aI5
aI7
aI7
aI7
aI9
aI9
aI7
aI9
aI11
aI13
aI12
aI8
aI7
aI7
aI7
aI9
aI11
aI10
aI10
aI7
aI7
aI5
aI7
aI9
aI10
aI10
aI10
aI11
aI10
aI9
aI8
aI12
aI11
aI9
aI11
aI10
aI9
aI11
aI9
aI7
aI6
aI8
aI11
aI6
aI8
aI8
aI8
aI7
aI7
aI8
aI8
aI10
aI7
aI3
aI3
aI2
aI7
aI9
aI11
aI12
aI12
aI10
aI12
aI11
aI8
aI9
aI9
aI10
aI7
aI7
aI4
aI7
aI4
aI5
aI3
aI3
aI4
aI6
aI3
aI4
aI4
aI7
aI5
aI5
aI8
aI7
aI6
aI8
aI9
aI7
aI9
aI9
aI6
aI8
aI11
aI9
aI8
aI6
aI6
aI8
aI8
aI8
aI12
aI12
aI13
aI11
aI11
aI14
aI14
aI12
aI9
aI9
aI11
aI11
aI10
aI9
aI9
aI9
aI9
aI12
aI10
aI9
aI14
aI10
aI7
aI9
aI5
aI6
aI6
aI6
aI7
aI7
aI5
aI6
aI4
aI5
aI9
aI10
aI9
aI9
aI10
aI12
aI11
aI11
aI13
aI8
aI9
aI11
aI10
aI7
aI7
aI5
aI3
aI6
aI7
aI7
aI7
aI6
aI5
aI7
aI9
aI7
aI8
aI4
aI5
aI4
aI4
aI7
aI7
aI3
aI8
aI8
aI5
aI6
aI12
aI13
aI11
aI11
aI11
aI12
aI12
aI12
aI11
aI12
aI11
aI10
aI10
aI9
aI7
aI5
aI6
aI6
aI7
aI9
aI11
aI12
aI11
aI8
aI14
aI14
aI11
aI10
aI10
aI11
aI10
aI10
aI8
aI10
aI11
aI13
aI14
aI12
aI9
aI8
aI6
aI9
aI9
aI11
aI8
aI9
aI9
aI9
aI8
aI8
aI7
aI7
aI5
aI7
aI6
aI7
aI6
aI7
aI5
aI4
aI2
aI3
aI3
aI6
aI6
aI6
aI3
aI1
aI0
aI2
aI6
aI6
aI5
aI6
aI10
aI8
aI10
aI8
aI9
aI10
aI11
aI10
aI7
aI6
aI7
aI6
aI6
aI5
aI7
aI8
aI8
aI9
aI9
aI7
aI10
aI8
aI10
aI10
aI13
aI11
aI8
aI8
aI11
aI11
aI13
aI7
aI8
aI8
aI6
aI6
aI8
aI7
aI10
aI11
aI14
aI10
aI9
aI7
aI12
aI11
aI13
aI10
aI11
aI7
aI10
aI7
aI11
aI9
aI11
aI9
aI11
aI11
aI9
aI8
aI12
aI10
aI12
aI14
aI12
aI9
aI11
aI10
aI11
aI9
aI9
aI8
aI10
aI12
aI10
aI9
aI15
aI13
aI15
aI12
aI13
aI11
aI11
aI13
aI11
aI7
aI10
aI7
aI8
aI9
aI10
aI11
aI14
aI10
aI11
aI12
aI13
aI12
aI14
aI8
aI14
aI12
aI11
aI7
aI8
aI6
aI10
aI11
aI12
aI13
aI11
aI9
aI11
aI11
aI12
aI12
aI12
aI9
aI8
aI6
aI7
aI8
aI9
aI9
aI8
aI8
aI7
aI5
aI10
aI7
aI10
aI9
aI5
aI5
aI7
aI5
aI11
aI9
aI11
aI9
aI10
aI7
aI10
aI11
aI12
aI12
aI12
aI10
aI15
aI13
aI14
aI11
aI10
aI7
aI6
aI7
aI7
aI8
aI8
aI5
aI3
aI4
aI7
aI3
aI5
aI6
aI9
aI7
aI7
aI7
aI8
aI7
aI9
aI8
aI11
aI8
aI10
aI8
aI11
aI7
aI7
aI7
aI11
aI9
aI12
aI13
aI16
aI13
aI15
aI11
aI9
aI6
aI9
aI10
aI11
aI8
aI10
aI8
aI9
aI8
aI8
aI7
aI6
aI6
aI8
aI8
aI7
aI9
aI8
aI9
aI9
aI10
aI13
aI14
aI14
aI10
aI13
aI13
aI16
aI12
aI13
aI9
aI8
aI8
aI8
aI8
aI6
aI7
aI8
aI9
aI12
aI12
aI9
aI7
aI11
aI10
aI10
aI9
aI7
aI7
aI8
aI9
aI10
aI10
aI11
aI11
aI7
aI7
aI11
aI10
aI9
aI9
aI12
aI4
aI6
aI7
aI5
aI1
aI7
aI5
aI7
aI4
aI7
aI7
aI5
aI6
aI9
aI8
aI12
aI8
aI7
aI7
aI10
aI10
aI11
aI11
aI10
aI9
aI12
aI12
aI9
aI9
aI15
aI13
aI16
aI14
aI16
aI17
aI15
aI14
aI13
aI12
aI14
aI15
aI12
aI12
aI12
aI9
aI9
aI8
aI9
aI6
aI11
aI11
aI7
aI8
aI6
aI6
aI12
aI14
aI13
aI11
aI12
aI7
aI9
aI9
aI11
aI11
aI12
aI8
aI11
aI10
aI12
aI10
aI11
aI10
aI10
aI9
aI9
aI8
aI10
aI5
aI10
aI9
aI12
aI13
aI11
aI9
aI11
aI9
aI12
aI9
aI13
aI11
aI9
aI6
aI11
aI9
aI11
aI9
aI9
aI8
aI8
aI9
aI11
aI12
aI15
aI11
aI12
aI12
aI14
aI13
aI14
aI12
aI14
aI14
aI11
aI11
aI13
aI12
aI11
aI13
aI13
aI13
aI15
aI13
aI13
aI16
aI16
aI14
aI15
aI15
aI11
aI8
aI10
aI11
aI15
aI12
aI13
aI12
aI13
aI8
aI9
aI8
aI7
aI6
aI8
aI7
aI13
aI13
aI11
aI8
aI11
aI11
aI9
aI7
aI13
aI13
aI15
aI13
aI14
aI10
aI11
aI7
aI9
aI7
aI7
aI6
aI8
aI9
aI9
aI8
aI8
aI7
aI8
aI9
aI11
aI10
aI11
aI10
aI11
aI10
aI8
aI9
aI7
aI4
aI8
aI9
aI13
aI10
aI11
aI9
aI9
aI9
aI14
aI14
aI11
aI9
aI7
aI10
aI9
aI9
aI7
aI4
aI7
aI9
aI5
aI4
aI7
aI7
aI9
aI10
aI8
aI8
aI9
aI8
aI12
aI12
aI9
aI7
aI7
aI7
aI12
aI10
aI10
aI9
aI8
aI7
aI8
aI8
aI12
aI13
aI15
aI14
aI14
aI11
aI12
aI13
aI13
aI8
aI9
aI9
aI11
aI12
aI13
aI11
aI9
aI8
aI10
aI7
aI11
aI10
aI12
aI10
aI5
aI5
aI7
aI7
aI7
aI8
aI7
aI6
aI10
aI7
aI11
aI11
aI13
aI9
aI12
aI9
aI12
aI8
aI10
aI11
aI8
aI7
aI11
aI12
aI9
aI9
aI6
aI6
aI7
aI8
aI6
aI5
aI5
aI3
aaa(lp7
S'11 12 2004 13 51 00'
p8
a(lp9
I1
aI1
aI1
aI1
aI1
aI1
aI1
aI1
aI1
aI1
aI1
aI1
aI1
aI1
aI1
aI1
aI1
aI1
aI1
aI1
aI1
aI1
aI1
aI1
aI1
aI1
aI1
aI1
aI1
aI1
aI1
aI1
aI1
aI1
aI1
aI1
aI1
aI2
aI2
aI2
aI2
aI2
aI2
aI3
aI3
aI3
aI3
aI3
aI3
aI3
aI3
aI4
aI3
aI3
aI3
aI3
aI3
aI2
aI3
aI5
aI4
aI4
aI5
aI4
aI4
aI5
aI5
aI7
aI7
aI6
aI6
aI5
aI5
aI3
aI3
aI4
aI5
aI4
aI5
aI6
aI5
aI3
aI3
aI4
aI5
aI5
aI5
aI8
aI10
aI9
aI7
aI8
aI7
aI5
aI5
aI5
aI4
aI3
aI3
aI5
aI5
aI5
aI4
aI4
aI4
aI4
aI4
aI5
aI7
aI7
aI4
aI3
aI3
aI3
aI2
aI4
aI3
aI2
aI1
aI3
aI5
aI6
aI5
aI6
aI5
aI4
aI6
aI6
aI6
aI5
aI4
aI6
aI7
aI8
aI8
aI9
aI9
aI8
aI9
aI7
aI5
aI5
aI5
aI6
aI7
aI6
aI6
aI7
aI8
aI8
aI9
aI10
aI9
aI8
aI7
aI7
aI8
aI5
aI5
aI4
aI5
aI6
aI11
aI11
aI10
aI9
aI7
aI6
aI6
aI7
aI6
aI8
aI7
aI3
aI3
aI4
aI4
aI5
aI6
aI6
aI6
aI5
aI6
aI7
aI7
aI4
aI5
aI6
aI6
aI9
aI9
aI9
aI8
aI7
aI7
aI6
aI5
aI5
aI5
aI7
aI7
aI6
aI5
aI6
aI6
aI6
aI9
aI9
aI9
aI9
aI10
aI10
aI10
aI10
aI9
aI9
aI8
aI9
aI9
aI9
aI9
aI9
aI8
aI5
aI7
aI6
aI5
aI5
aI5
aI5
aI5
aI9
aI9
aI8
aI7
aI7
aI7
aI8
aI9
aI10
aI10
aI9
aI7
aI10
aI11
aI12
aI11
aI10
aI9
aI8
aI8
aI7
aI7
aI7
aI6
aI7
aI6
aI4
aI6
aI6
aI5
aI6
aI7
aI11
aI10
aI9
aI7
aI8
aI8
aI8
aI8
aI9
aI10
aI8
aI7
aI7
aI7
aI7
aI7
aI8
aI8
aI8
aI7
aI6
aI7
aI8
aI5
aI4
aI5
aI5
aI5
aI11
aI9
aI7
aI8
aI8
aI7
aI5
aI6
aI5
aI5
aI5
aI4
aI3
aI4
aI3
aI3
aI3
aI3
aI4
aI4
aI6
aI6
aI5
aI3
aI4
aI4
aI6
aI6
aI6
aI8
aI8
aI7
aI8
aI6
aI5
aI7
aI7
aI8
aI8
aI9
aI10
aI12
aI13
aI11
aI9
aI10
aI10
aI9
aI10
aI9
aI9
aI11
aI12
aI11
aI11
aI15
aI14
aI15
aI14
aI14
aI16
aI16
aI13
aI12
aI10
aI8
aI8
aI8
aI8
aI7
aI7
aI7
aI9
aI8
aI9
aI10
aI14
aI12
aI10
aI8
aI7
aI8
aI6
aI7
aI7
aI7
aI7
aI7
aI8
aI9
aI8
aI7
aI6
aI4
aI5
aI6
aI8
aI8
aI6
aI8
aI7
aI7
aI7
aI8
aI9
aI7
aI5
aI1
aI3
aI4
aI5
aI6
aI7
aI7
aI6
aI5
aI5
aI4
aI4
aI3
aI5
aI6
aI5
aI5
aI5
aI5
aI5
aI4
aI5
aI6
aI5
aI5
aI5
aI5
aI3
aI2
aI3
aI3
aI4
aI4
aI8
aI8
aI5
aI7
aI7
aI7
aI6
aI5
aI5
aI4
aI3
aI4
aI5
aI5
aI6
aI5
aI4
aI4
aI4
aI3
aI4
aI4
aI6
aI5
aI7
aI6
aI5
aI6
aI3
aI5
aI4
aI5
aI6
aI5
aI7
aI8
aI7
aI6
aI4
aI5
aI6
aI7
aI7
aI7
aI9
aI8
aI8
aI8
aI11
aI11
aI12
aI13
aI14
aI12
aI13
aI10
aI9
aI9
aI8
aI9
aI8
aI9
aI7
aI7
aI8
aI7
aI7
aI7
aI7
aI7
aI6
aI5
aI7
aI5
aI5
aI5
aI5
aI5
aI6
aI7
aI6
aI5
aI4
aI4
aI5
aI7
aI8
aI10
aI8
aI8
aI7
aI7
aI7
aI7
aI8
aI9
aI9
aI9
aI7
aI3
aI4
aI4
aI4
aI3
aI5
aI7
aI7
aI6
aI8
aI6
aI7
aI6
aI7
aI10
aI10
aI10
aI10
aI11
aI11
aI10
aI8
aI9
aI8
aI7
aI9
aI10
aI9
aI8
aI8
aI9
aI10
aI11
aI9
aI9
aI7
aI7
aI7
aI7
aI6
aI5
aI4
aI4
aI5
aI5
aI6
aI6
aI6
aI6
aI5
aI4
aI5
aI4
aI5
aI5
aI5
aI4
aI8
aI9
aI8
aI8
aI7
aI5
aI5
aI7
aI8
aI7
aI6
aI6
aI6
aI7
aI8
aI9
aI10
aI9
aI10
aI9
aI6
aI8
aI8
aI8
aI6
aI6
aI7
aI7
aI6
aI5
aI5
aI5
aI8
aI9
aI9
aI9
aI6
aI8
aI8
aI7
aI5
aI4
aI4
aI7
aI7
aI5
aI4
aI5
aI8
aI9
aI7
aI8
aI9
aI7
aI7
aI7
aI6
aI7
aI7
aI4
aI7
aI9
aI8
aI7
aI8
aI10
aI10
aI9
aI9
aI9
aI9
aI8
aI12
aI11
aI10
aI9
aI12
aI13
aI13
aI13
aI15
aI14
aI11
aI11
aI12
aI14
aI14
aI13
aI16
aI14
aI15
aI10
aI13
aI13
aI13
aI15
aI16
aI14
aI14
aI12
aI13
aI10
aI10
aI7
aI8
aI10
aI11
aI11
aI12
aI12
aI12
aI11
aI11
aI10
aI9
aI9
aI9
aI11
aI9
aI7
aI9
aI8
aI7
aI5
aI7
aI8
aI7
aI8
aI8
aI7
aI6
aI6
aI5
aI6
aI5
aI5
aI5
aI3
aI4
aI5
aI4
aI2
aI2
aI2
aI3
aI3
aI5
aI5
aI6
aI7
aI5
aI4
aI5
aI5
aI7
aI8
aI9
aI8
aI10
aI7
aI6
aI6
aI5
aI4
aI4
aI2
aI2
aI1
aI2
aI1
aI4
aI4
aI6
aI6
aI6
aI5
aI4
aI4
aI5
aI5
aI3
aI4
aI2
aI4
aI3
aI3
aI3
aI2
aI3
aI5
aI5
aI5
aI6
aI6
aI5
aI3
aI2
aI2
aI2
aI2
aI2
aI2
aI4
aI3
aI4
aI4
aI3
aI4
aI8
aI10
aI9
aI10
aI9
aI9
aI9
aI9
aI8
aI7
aI6
aI8
aI7
aI6
aI7
aI6
aI6
aI6
aI6
aI4
aI4
aI3
aI2
aI3
aI4
aI3
aI3
aI4
aI5
aI4
aI5
aI7
aI8
aI8
aI10
aI9
aI7
aI7
aI7
aI7
aI7
aI5
aI5
aI5
aI5
aI4
aI4
aI4
aI4
aI6
aI6
aI6
aI7
aI6
aI7
aI8
aI14
aI13
aI13
aI14
aI16
aI13
aI11
aI11
aI14
aI12
aI13
aI12
aI12
aI10
aI11
aI7
aI5
aI4
aI4
aI6
aI6
aI6
aI7
aI7
aI5
aI6
aI6
aI4
aI7
aI8
aI9
aI6
aI8
aI8
aI10
aI9
aI13
aI11
aI12
aI11
aI11
aI12
aI11
aI10
aI10
aI10
aI9
aI8
aI8
aI5
aI5
aI5
aI5
aI5
aI5
aI4
aI8
aI7
aI8
aI9
aI8
aI7
aI5
aI5
aI7
aI6
aI6
aI6
aI8
aI9
aI9
aI10
aI6
aI6
aI6
aI7
aI6
aI7
aI8
aI6
aI10
aI10
aI11
aI10
aI10
aI9
aI5
aI7
aI8
aI7
aI5
aI5
aI9
aI7
aI6
aI6
aI9
aI9
aI9
aI7
aI5
aI4
aI4
aI4
aI7
aI8
aI6
aI6
aI6
aI6
aI5
aI5
aI7
aI7
aI8
aI12
aI13
aI12
aI13
aI11
aI10
aI9
aI9
aI10
aI8
aI7
aI7
aI7
aI9
aI9
aI8
aI8
aI8
aI7
aI6
aI6
aI8
aI8
aI8
aI6
aI6
aI5
aI6
aI6
aI7
aI7
aI5
aI5
aI5
aI4
aI7
aI10
aI10
aI8
aI6
aI6
aI5
aI6
aI6
aI5
aI8
aI8
aI10
aI11
aI13
aI13
aI14
aI15
aI16
aI14
aI15
aI13
aI13
aI13
aI11
aI9
aI9
aI8
aI9
aI7
aI12
aI11
aI8
aI6
aI7
aI6
aI6
aI4
aI4
aI4
aI6
aI4
aI4
aI3
aI3
aI3
aI6
aI6
aI6
aI5
aI3
aI4
aI5
aI4
aI4
aI4
aI4
aI3
aI6
aI4
aI5
aI5
aI7
aI7
aI6
aI5
aI5
aI3
aI4
aI4
aI4
aI5
aI5
aI5
aI7
aI9
aI10
aI9
aI12
aI11
aI11
aI11
aI13
aI10
aI7
aI9
aI8
aI7
aI7
aI7
aI8
aI6
aI5
aI5
aI5
aI6
aI7
aI6
aI6
aI5
aI3
aI4
aI5
aI4
aI4
aI5
aI5
aI6
aI7
aI7
aI8
aI5
aI6
aI6
aI7
aI6
aI7
aI7
aI6
aI6
aI6
aI5
aI8
aI7
aI7
aI7
aI8
aI10
aI10
aI9
aI11
aI12
aI11
aI10
aI10
aI9
aI10
aI10
aI11
aI11
aI12
aI12
aI12
aI11
aI12
aI12
aI11
aI10
aI9
aI10
aI8
aI10
aI9
aI7
aI12
aI11
aI10
aI8
aI10
aI9
aI9
aI7
aI5
aI5
aI6
aI7
aI6
aI5
aI6
aI5
aI5
aI7
aI6
aI6
aI6
aI6
aI8
aI8
aI7
aI8
aI8
aI8
aI9
aI9
aI8
aI7
aI5
aI5
aI3
aI6
aI6
aI5
aI4
aI3
aI3
aI4
aI3
aI6
aI6
aI5
aI4
aI4
aI6
aI5
aI5
aI5
aI6
aI5
aI11
aI12
aI14
aI13
aI13
aI11
aI12
aI12
aI12
aI13
aI14
aI12
aI8
aI7
aI12
aI10
aI10
aI15
aI16
aI12
aI10
aI8
aI8
aI9
aI14
aI12
aI11
aI9
aI10
aI8
aI14
aI13
aI11
aI10
aI12
aI11
aI13
aI15
aI18
aI17
aI15
aI13
aI13
aI12
aI14
aI16
aI13
aI12
aI9
aI8
aI7
aI5
aI6
aI5
aI10
aI11
aI11
aI9
aI12
aI6
aI7
aI5
aI6
aI8
aI8
aI6
aI9
aI6
aI7
aI6
aI12
aI12
aI13
aI12
aI13
aI11
aI11
aI8
aI11
aI10
aI12
aI15
aI16
aI10
aI8
aI7
aI11
aI8
aI9
aI7
aI11
aI10
aI8
aI10
aI12
aI11
aI9
aI7
aI12
aI12
aI15
aI15
aI14
aI12
aI13
aI13
aI16
aI13
aI11
aI13
aI16
aI14
aI15
aI10
aI14
aI16
aI17
aI15
aI13
aI13
aI12
aI13
aI14
aI13
aI10
aI9
aI11
aI10
aI11
aI12
aI16
aI15
aI12
aI10
aI9
aI7
aI5
aI5
aI8
aI10
aI7
aI4
aI8
aI7
aI7
aI5
aI7
aI6
aI7
aI7
aI12
aI14
aI12
aI9
aI9
aI11
aI9
aI13
aI13
aI14
aI12
aI14
aI14
aI11
aI10
aI7
aI8
aI10
aI12
aI9
aI9
aI8
aI10
aI11
aI14
aI14
aI12
aI10
aI9
aI8
aI8
aI6
aI10
aI6
aI7
aI8
aI8
aI7
aI5
aI5
aI5
aI4
aI5
aI5
aI10
aI13
aI11
aI9
aI11
aI10
aI9
aI9
aI13
aI11
aI10
aI12
aI15
aI13
aI12
aI10
aI12
aI12
aI13
aI13
aI12
aI11
aI8
aI7
aI8
aI9
aI11
aI12
aI15
aI10
aI9
aI8
aI13
aI12
aI12
aI14
aI15
aI15
aI13
aI11
aI13
aI11
aI10
aI6
aI11
aI11
aI10
aI10
aI14
aI15
aI13
aI11
aI12
aI7
aI9
aI11
aI14
aI13
aI14
aI14
aI15
aI13
aI13
aI13
aI11
aI12
aI10
aI11
aI12
aI10
aI9
aI8
aI12
aI13
aI12
aI15
aI15
aI14
aI10
aI9
aI9
aI9
aI9
aI11
aI15
aI11
aI9
aI8
aI13
aI13
aI12
aI12
aI12
aI10
aI8
aI9
aI15
aI12
aI10
aI9
aI11
aI11
aI11
aI13
aI15
aI13
aI14
aI12
aI17
aI17
aI17
aI16
aI15
aI16
aI14
aI11
aI16
aI14
aI9
aI8
aI10
aI10
aI9
aI8
aI12
aI8
aI8
aI7
aI12
aI11
aI11
aI10
aI14
aI15
aI14
aI11
aI12
aI12
aI10
aI10
aI11
aI9
aI11
aI12
aI15
aI14
aI10
aI8
aI13
aI14
aI14
aI13
aI15
aI14
aI13
aI12
aI13
aI15
aI14
aI16
aI17
aI16
aI12
aI10
aI11
aI10
aI10
aI11
aI13
aI14
aI13
aI12
aI12
aI11
aI11
aI12
aI13
aI12
aI12
aI12
aI14
aI14
aI14
aI10
aI12
aI11
aI11
aI13
aI13
aI10
aI10
aI7
aI10
aI10
aI11
aI11
aI13
aI10
aI9
aI8
aI10
aI11
aI8
aI4
aI6
aI11
aI9
aI8
aI10
aI8
aI7
aI7
aI12
aI12
aI9
aI9
aI12
aI9
aI8
aI7
aI4
aI5
aI5
aI4
aI5
aI4
aI3
aI2
aI6
aI7
aI6
aI6
aI7
aI7
aI7
aI12
aI14
aI8
aI7
aI6
aI8
aI9
aI8
aI12
aI16
aI11
aI9
aI10
aI9
aI9
aI9
aI9
aI12
aI10
aI9
aI6
aI11
aI10
aI9
aI8
aI12
aI13
aI12
aI15
aI16
aI14
aI12
aI9
aI12
aI11
aI13
aI14
aI13
aI12
aI6
aI7
aI7
aI5
aI4
aI4
aI11
aI8
aI8
aI6
aI10
aI11
aI9
aI7
aI10
aI5
aI6
aI4
aI4
aI4
aI4
aI6
aI8
aI7
aI5
aI7
aI6
aI7
aI5
aI5
aI4
aI3
aI3
aI4
aI2
aI2
aI3
aI3
aI5
aI5
aI5
aI3
aI7
aI5
aI4
aI5
aI6
aI6
aI6
aI4
aI9
aI9
aI8
aI10
aI16
aI13
aI11
aI11
aI13
aI13
aI12
aI11
aI13
aI13
aI12
aI10
aI14
aI14
aI12
aI11
aI16
aI13
aI8
aI7
aI11
aI11
aI9
aI11
aI13
aI11
aI8
aI10
aI13
aI11
aI11
aI9
aI11
aI9
aI8
aI7
aI10
aI11
aI10
aI11
aI9
aI7
aI5
aI4
aI12
aI10
aI6
aI4
aI6
aI6
aI2
aI2
aI2
aI4
aI6
aI6
aI6
aI7
aI4
aI3
aI6
aI5
aI5
aI5
aI7
aI6
aI5
aI2
aI7
aI6
aI6
aI3
aI5
aI3
aI3
aI4
aI6
aI6
aI6
aI4
aI12
aI8
aI7
aI5
aI10
aI11
aI10
aI7
aI11
aI8
aI7
aI6
aI8
aI8
aI6
aI5
aI9
aI9
aI7
aI4
aI10
aI8
aI8
aI9
aI12
aI11
aI10
aI10
aI14
aI12
aI11
aI12
aI14
aI13
aI11
aI11
aI14
aI7
aI7
aI5
aI7
aI7
aI4
aI3
aI8
aI8
aI7
aI4
aI7
aI6
aI4
aI5
aI8
aI9
aI8
aI5
aI8
aI8
aI8
aI7
aI13
aI11
aI10
aI11
aI11
aI10
aI7
aI9
aI14
aI12
aI12
aI11
aI9
aI11
aI10
aI10
aI13
aI10
aI9
aI14
aI15
aI12
aI11
aI7
aI7
aI5
aI7
aI8
aI10
aI9
aI6
aI4
aI7
aI5
aI6
aI6
aI12
aI10
aI10
aI10
aI11
aI9
aI8
aI6
aI7
aI5
aI5
aI5
aI6
aI6
aI6
aI4
aI6
aI8
aI10
aI10
aI11
aI8
aI7
aI4
aI13
aI15
aI15
aI13
aI14
aI12
aI9
aI10
aI12
aI12
aI12
aI12
aI11
aI10
aI9
aI11
aI11
aI9
aI7
aI2
aI6
aI6
aI3
aI6
aI9
aI9
aI9
aI12
aI17
aI14
aI11
aI11
aI14
aI10
aI5
aI5
aI9
aI7
aI6
aI8
aI12
aI10
aI7
aI10
aI12
aI13
aI16
aI14
aI18
aI18
aI18
aI19
aI20
aI17
aI13
aI11
aI12
aI11
aI11
aI10
aI11
aI7
aI6
aI4
aI5
aI4
aI4
aI5
aI9
aI11
aI11
aI7
aI11
aI11
aI10
aI10
aI12
aI12
aI12
aI13
aI9
aI8
aI10
aI8
aI11
aI9
aI12
aI12
aI14
aI15
aI12
aI11
aI9
aI7
aI7
aI7
aI12
aI9
aI7
aI6
aI10
aI13
aI12
aI15
aI12
aI8
aI7
aI8
aI8
aI8
aI4
aI3
aI3
aI4
aI5
aI4
aI5
aI5
aI3
aI1
aI3
aI3
aI4
aI7
aI10
aI10
aI8
aI11
aI11
aI8
aI6
aI5
aI11
aI9
aI8
aI8
aI13
aI11
aI10
aI7
aI9
aI9
aI7
aI6
aI6
aI7
aI8
aI7
aI9
aI8
aI7
aI6
aI10
aI10
aI8
aI9
aI12
aI11
aI10
aI9
aI15
aI14
aI13
aI13
aI15
aI11
aI12
aI10
aI12
aI11
aI12
aI13
aI12
aI8
aI9
aI11
aI14
aI12
aI11
aI8
aI13
aI15
aI12
aI11
aI16
aI14
aI11
aI7
aI8
aI7
aI9
aI10
aI11
aI12
aI10
aI8
aI8
aI9
aI9
aI9
aI16
aI16
aI13
aI14
aI15
aI9
aI10
aI9
aI13
aI11
aI9
aI9
aI10
aI9
aI8
aI9
aI15
aI11
aI9
aI10
aI12
aI12
aI12
aI9
aI14
aI11
aI11
aI10
aI12
aI13
aI12
aI7
aI9
aI7
aI6
aI8
aI13
aI9
aI9
aI12
aI14
aI14
aI13
aI10
aI12
aI11
aI11
aI10
aI13
aI12
aI8
aI9
aI9
aI6
aI4
aI5
aI9
aI9
aI6
aI6
aI7
aI6
aI6
aI6
aI11
aI12
aI7
aI9
aI8
aI8
aI6
aI3
aI5
aI6
aI7
aI10
aI8
aI9
aI7
aI6
aI11
aI11
aI11
aI10
aI16
aI16
aI13
aI11
aI14
aI12
aI10
aI5
aI7
aI9
aI9
aI9
aI10
aI10
aI10
aI5
aI10
aI11
aI9
aI11
aI15
aI13
aI9
aI5
aI12
aI10
aI11
aI10
aI10
aI11
aI9
aI8
aI13
aI14
aI11
aI10
aI12
aI15
aI11
aI10
aI12
aI9
aI5
aI6
aI13
aI11
aI9
aI10
aI8
aI7
aI4
aI3
aI7
aI8
aI10
aI10
aI14
aI15
aI11
aI11
aI15
aI15
aI16
aI14
aI20
aI17
aI13
aI13
aI16
aI18
aI16
aI14
aI16
aI15
aI15
aI15
aI18
aI14
aI7
aI7
aI11
aI10
aI11
aI10
aI13
aI11
aI8
aI8
aI10
aI10
aI8
aI7
aI14
aI9
aI5
aI5
aI7
aI4
aI4
aI4
aI6
aI4
aI6
aI7
aI10
aI8
aI7
aI8
aI11
aI8
aI9
aI7
aI9
aI9
aI10
aI8
aI15
aI15
aI10
aI8
aI12
aI11
aI9
aI11
aI15
aI15
aI13
aI11
aI14
aI11
aI12
aI12
aI12
aI11
aI10
aI7
aI11
aI7
aI5
aI5
aI7
aI7
aI5
aI4
aI6
aI6
aI6
aI5
aI7
aI8
aI9
aI7
aI12
aI10
aI9
aI6
aI11
aI12
aI13
aI13
aI12
aI9
aI8
aI3
aI8
aI7
aI7
aI8
aI12
aI12
aI10
aI9
aI10
aI10
aI10
aI9
aI16
aI13
aI12
aI9
aI12
aI11
aI10
aI8
aI11
aI12
aI8
aI9
aI13
aI10
aI11
aI9
aI8
aI8
aI8
aI8
aI12
aI11
aI10
aI7
aI13
aI14
aI13
aI11
aI15
aI14
aI9
aI7
aI6
aI6
aI4
aI7
aI9
aI7
aI6
aI8
aI6
aI7
aI6
aI9
aI14
aI6
aI9
aI10
aI10
aI10
aI5
aI2
aI2
aI5
aI5
aI7
aI6
aI10
aI10
aI10
aI13
aI16
aI15
aI12
aI11
aI8
aI8
aI7
aI7
aI8
aI7
aI4
aI9
aI10
aI10
aI8
aI12
aI10
aI14
aI11
aI12
aI13
aI13
aI12
aI11
aI8
aI10
aI8
aI7
aI9
aI7
aI6
aI11
aI10
aI13
aI12
aI11
aI11
aI10
aI8
aI5
aI11
aI9
aI9
aI6
aI6
aI7
aI8
aI7
aI7
aI6
aI8
aI8
aI9
aI6
aI8
aI8
aI8
aI5
aI8
aI8
aI9
aI12
aI13
aI11
aI7
aI6
aI7
aI8
aI6
aI7
aI9
aI9
aI9
aI7
aI5
aI8
aI8
aI7
aI8
aI6
aI8
aI10
aI9
aI9
aI7
aI5
aI11
aI7
aI9
aI6
aI4
aI6
aI8
aI5
aI6
aI9
aI10
aI11
aI9
aI9
aI9
aI10
aI8
aI9
aI11
aI9
aI7
aI8
aI9
aI10
aI7
aI10
aI8
aI6
aI7
aI6
aI6
aI7
aI8
aI6
aI5
aI8
aI8
aI9
aI10
aI13
aI11
aI12
aI13
aI14
aI11
aI10
aI9
aI9
aI10
aI10
aI7
aI11
aI10
aI12
aI11
aI10
aI8
aI6
aI8
aI12
aI10
aI14
aI10
aI9
aI8
aI12
aI12
aI14
aI13
aI15
aI13
aI9
aI9
aI12
aI10
aI10
aI12
aI10
aI11
aI7
aI8
aI13
aI13
aI13
aI9
aI9
aI8
aI8
aI8
aI5
aI5
aI5
aI9
aI7
aI9
aI12
aI10
aI7
aI6
aI8
aI6
aI7
aI7
aI7
aI7
aI5
aI8
aI4
aI3
aI2
aI4
aI4
aI5
aI5
aI5
aI4
aI7
aI8
aI9
aI7
aI11
aI8
aI5
aI5
aI5
aI3
aI2
aI4
aI3
aI8
aI8
aI6
aI8
aI4
aI4
aI5
aI6
aI6
aI7
aI6
aI5
aI7
aI6
aI7
aI7
aI7
aI10
aI8
aI6
aI6
aI7
aI8
aI7
aI7
aI10
aI8
aI8
aI10
aI7
aI7
aI7
aI12
aI9
aI7
aI9
aI7
aI9
aI5
aI3
aI5
aI4
aI2
aI4
aI4
aI3
aI2
aI3
aI6
aI7
aI6
aI7
aI5
aI2
aI4
aI1
aI3
aI3
aI3
aI3
aI4
aI4
aI9
aI5
aI10
aI10
aI8
aI6
aI3
aI6
aI10
aI10
aI6
aI6
aI5
aI5
aI7
aI7
aI8
aI8
aI6
aI7
aI4
aI4
aI4
aI7
aI6
aI2
aI4
aI4
aI8
aI8
aI10
aI10
aI7
aI10
aI11
aI10
aI7
aI8
aI6
aI7
aI7
aI10
aI8
aI9
aI12
aI7
aI8
aI10
aI10
aI6
aI8
aI8
aI8
aI7
aI9
aI9
aI10
aI8
aI9
aI11
aI9
aI8
aI6
aI11
aI9
aI11
aI9
aI10
aI7
aI6
aI5
aI6
aI5
aI5
aI5
aI7
aI8
aI11
aI11
aI13
aI11
aI14
aI12
aI10
aI10
aI14
aI11
aI8
aI8
aI9
aI6
aI7
aI6
aI8
aI6
aI8
aI6
aI10
aI7
aI11
aI10
aI7
aI6
aI6
aI7
aI9
aI10
aI6
aI7
aI5
aI5
aI6
aI7
aI10
aI8
aI9
aI7
aI8
aI6
aI8
aI10
aI13
aI11
aI12
aI8
aI10
aI9
aI14
aI15
aI15
aI11
aI10
aI11
aI11
aI10
aI13
aI13
aI14
aI8
aI10
aI9
aI10
aI11
aI12
aI11
aI11
aI8
aI6
aI5
aI6
aI6
aI13
aI12
aI13
aI9
aI15
aI14
aI16
aI11
aI11
aI12
aI6
aI5
aI8
aI11
aI10
aI5
aI8
aI6
aI12
aI11
aI12
aI8
aI7
aI4
aI4
aI5
aI7
aI4
aI9
aI8
aI9
aI11
aI14
aI16
aI16
aI12
aI11
aI10
aI10
aI7
aI10
aI9
aI10
aI9
aI13
aI11
aI12
aI14
aI16
aI10
aI10
aI8
aI7
aI5
aI7
aI4
aI7
aI7
aI10
aI8
aI13
aI13
aI12
aI8
aI7
aI6
aI9
aI8
aI12
aI7
aI10
aI7
aI9
aI8
aI11
aI12
aI15
aI13
aI13
aI10
aI10
aI9
aI13
aI14
aI13
aI14
aI14
aI12
aI8
aI7
aI5
aI5
aI9
aI10
aI14
aI15
aI14
aI11
aI9
aI13
aI11
aI8
aI9
aI8
aI8
aI6
aI8
aI6
aI11
aI13
aI10
aI9
aI10
aI11
aI10
aI5
aI6
aI5
aI6
aI8
aI12
aI10
aI13
aI12
aI17
aI15
aI15
aI12
aI11
aI8
aI13
aI11
aI14
aI10
aI10
aI10
aI15
aI15
aI15
aI12
aI10
aI10
aI10
aI9
aI10
aI10
aI14
aI7
aI7
aI5
aI9
aI10
aI12
aI11
aI10
aI8
aI9
aI10
aI11
aI11
aI16
aI12
aI13
aI13
aI15
aI12
aI13
aI10
aI9
aI9
aI9
aI8
aI15
aI16
aI15
aI12
aI13
aI11
aI10
aI12
aI15
aI11
aI12
aI13
aI12
aI10
aI12
aI7
aI4
aI6
aI6
aI5
aI7
aI7
aI10
aI8
aI10
aI7
aI10
aI10
aI10
aI11
aI10
aI9
aI9
aI10
aI11
aI11
aI11
aI8
aI9
aI8
aI9
aI8
aI12
aI10
aI8
aI5
aI7
aI8
aI11
aI10
aI9
aI9
aI10
aI8
aI10
aI4
aI7
aI6
aI7
aI9
aI9
aI6
aI8
aI10
aI12
aI9
aI9
aI7
aI12
aI9
aI15
aI15
aI13
aI8
aI9
aI6
aI8
aI7
aI7
aI4
aI3
aI4
aI7
aI3
aI7
aI8
aI10
aI9
aI14
aI11
aI13
aI8
aI12
aI9
aI8
aI6
aI8
aI6
aI7
aI4
aI6
aI7
aI6
aI5
aI9
aI8
aI10
aI12
aI14
aI10
aI11
aI11
aI10
aI13
aI14
aI9
aI9
aI9
aI7
aI4
aI6
aI6
aI6
aI4
aI9
aI9
aI9
aI8
aI10
aI11
aI13
aI10
aI11
aI9
aI9
aI7
aI10
aI8
aI9
aI8
aI11
aI10
aI11
aI11
aI9
aI5
aI7
aI6
aI7
aI9
aI11
aI11
aI12
aI10
aI13
aI12
aI16
aI14
aI15
aI13
aI12
aI11
aI14
aI10
aI11
aI9
aI11
aI9
aI15
aI12
aI11
aI10
aI11
aI11
aI13
aI9
aI8
aI9
aI10
aI9
aI10
aI8
aI14
aI16
aI15
aI14
aI13
aI6
aI6
aI3
aI7
aI6
aI5
aI5
aI6
aI6
aI7
aI7
aI9
aI10
aI9
aI7
aI8
aI4
aI7
aI7
aI8
aI4
aI6
aI4
aI6
aI7
aI7
aI6
aI9
aI9
aI12
aI14
aI11
aI10
aI13
aI12
aI16
aI11
aI14
aI13
aI11
aI10
aI11
aI8
aI9
aI10
aI15
aI15
aI14
aI11
aI7
aI6
aI10
aI10
aI14
aI9
aI7
aI6
aI10
aI9
aI11
aI8
aI11
aI9
aI11
aI9
aI12
aI11
aI11
aI11
aI13
aI12
aI12
aI9
aI11
aI10
aI12
aI11
aI13
aI9
aI13
aI12
aI13
aI12
aI12
aI7
aI7
aI8
aI11
aI8
aI6
aI6
aI6
aI6
aI8
aI5
aI3
aI0
aaa(lp10
S'12 22 2004 17 12 00'
p11
a(lp12
I1
aI1
aI1
aI1
aI1
aI1
aI2
aI2
aI4
aI4
aI2
aI3
aI5
aI5
aI4
aI4
aI4
aI4
aI4
aI4
aI6
aI8
aI8
aI6
aI6
aI5
aI5
aI7
aI8
aI5
aI5
aI7
aI8
aI5
aI4
aI4
aI5
aI4
aI3
aI4
aI4
aI3
aI3
aI5
aI6
aI6
aI6
aI9
aI9
aI10
aI11
aI11
aI12
aI9
aI5
aI5
aI4
aI3
aI3
aI3
aI3
aI3
aI1
aI1
aI2
aI2
aI2
aI4
aI5
aI6
aI3
aI4
aI3
aI3
aI3
aI2
aI4
aI5
aI4
aI4
aI6
aI7
aI6
aI4
aI5
aI5
aI6
aI6
aI6
aI4
aI4
aI4
aI5
aI6
aI3
aI3
aI3
aI4
aI3
aI5
aI6
aI6
aI5
aI9
aI12
aI11
aI10
aI8
aI8
aI7
aI6
aI6
aI5
aI5
aI5
aI5
aI4
aI5
aI3
aI3
aI4
aI4
aI4
aI4
aI5
aI6
aI6
aI6
aI6
aI6
aI5
aI5
aI5
aI5
aI5
aI6
aI8
aI7
aI7
aI7
aI8
aI7
aI7
aI6
aI6
aI8
aI5
aI5
aI8
aI10
aI10
aI9
aI7
aI6
aI4
aI4
aI4
aI4
aI4
aI6
aI9
aI9
aI8
aI6
aI7
aI5
aI4
aI4
aI5
aI6
aI4
aI6
aI6
aI7
aI6
aI7
aI6
aI7
aI8
aI7
aI5
aI5
aI4
aI3
aI5
aI5
aI5
aI8
aI6
aI6
aI5
aI7
aI6
aI7
aI5
aI7
aI5
aI3
aI4
aI4
aI5
aI4
aI3
aI3
aI5
aI4
aI4
aI4
aI4
aI4
aI4
aI4
aI5
aI5
aI4
aI2
aI2
aI2
aI2
aI2
aI2
aI2
aI3
aI3
aI4
aI2
aI2
aI2
aI2
aI6
aI7
aI10
aI8
aI8
aI8
aI8
aI7
aI5
aI4
aI5
aI5
aI4
aI5
aI9
aI9
aI5
aI4
aI5
aI6
aI5
aI5
aI4
aI5
aI6
aI6
aI6
aI4
aI5
aI5
aI4
aI4
aI2
aI3
aI3
aI3
aI1
aI1
aI5
aI6
aI5
aI6
aI7
aI8
aI8
aI8
aI5
aI5
aI4
aI4
aI4
aI3
aI3
aI5
aI5
aI4
aI5
aI3
aI3
aI6
aI5
aI5
aI6
aI7
aI8
aI10
aI9
aI6
aI6
aI7
aI8
aI7
aI6
aI6
aI7
aI8
aI8
aI6
aI8
aI10
aI9
aI7
aI8
aI9
aI7
aI5
aI5
aI5
aI5
aI4
aI3
aI5
aI5
aI5
aI6
aI6
aI6
aI5
aI4
aI4
aI6
aI6
aI7
aI7
aI7
aI6
aI7
aI6
aI6
aI6
aI7
aI5
aI5
aI4
aI3
aI4
aI4
aI4
aI6
aI7
aI6
aI2
aI3
aI3
aI3
aI4
aI3
aI2
aI1
aI2
aI2
aI2
aI1
aI0
aI1
aI1
aI1
aI2
aI2
aI2
aI2
aI3
aI5
aI5
aI6
aI7
aI7
aI6
aI8
aI6
aI7
aI9
aI8
aI8
aI7
aI7
aI6
aI5
aI4
aI6
aI7
aI6
aI5
aI7
aI7
aI7
aI8
aI8
aI7
aI6
aI4
aI5
aI5
aI4
aI4
aI5
aI4
aI5
aI4
aI5
aI6
aI6
aI6
aI6
aI7
aI8
aI8
aI10
aI10
aI8
aI8
aI7
aI7
aI6
aI7
aI7
aI9
aI8
aI8
aI7
aI6
aI6
aI6
aI9
aI8
aI8
aI5
aI6
aI6
aI8
aI5
aI6
aI6
aI6
aI9
aI8
aI7
aI5
aI5
aI6
aI6
aI9
aI10
aI9
aI10
aI7
aI6
aI10
aI11
aI11
aI11
aI12
aI13
aI12
aI11
aI12
aI13
aI14
aI11
aI12
aI11
aI10
aI10
aI11
aI10
aI8
aI7
aI6
aI8
aI8
aI9
aI8
aI11
aI11
aI10
aI10
aI10
aI10
aI9
aI8
aI8
aI8
aI8
aI9
aI9
aI10
aI9
aI9
aI8
aI8
aI11
aI10
aI9
aI8
aI8
aI8
aI8
aI9
aI9
aI9
aI8
aI7
aI5
aI9
aI9
aI11
aI11
aI9
aI9
aI9
aI8
aI11
aI11
aI11
aI11
aI9
aI9
aI10
aI10
aI10
aI10
aI9
aI8
aI7
aI7
aI6
aI7
aI6
aI6
aI5
aI6
aI7
aI6
aI6
aI4
aI5
aI6
aI7
aI6
aI6
aI7
aI8
aI7
aI6
aI7
aI7
aI8
aI7
aI7
aI7
aI7
aI8
aI7
aI8
aI8
aI7
aI6
aI7
aI6
aI7
aI7
aI6
aI6
aI7
aI8
aI7
aI7
aI9
aI8
aI8
aI9
aI9
aI9
aI8
aI8
aI9
aI8
aI8
aI8
aI9
aI9
aI9
aI10
aI8
aI8
aI7
aI7
aI7
aI7
aI7
aI6
aI4
aI5
aI3
aI5
aI6
aI6
aI9
aI9
aI10
aI9
aI10
aI11
aI9
aI8
aI7
aI6
aI10
aI12
aI11
aI11
aI13
aI14
aI12
aI13
aI9
aI8
aI9
aI10
aI10
aI8
aI8
aI9
aI10
aI8
aI7
aI6
aI8
aI8
aI8
aI9
aI9
aI7
aI7
aI7
aI10
aI9
aI10
aI10
aI9
aI9
aI10
aI10
aI9
aI9
aI8
aI8
aI6
aI4
aI4
aI4
aI4
aI4
aI3
aI3
aI7
aI6
aI7
aI11
aI10
aI10
aI8
aI7
aI7
aI3
aI4
aI5
aI7
aI8
aI6
aI7
aI6
aI7
aI8
aI8
aI9
aI8
aI6
aI6
aI10
aI9
aI7
aI6
aI7
aI7
aI12
aI11
aI11
aI12
aI10
aI8
aI8
aI8
aI8
aI8
aI8
aI7
aI6
aI5
aI5
aI5
aI5
aI4
aI5
aI5
aI5
aI7
aI7
aI7
aI7
aI8
aI8
aI8
aI7
aI6
aI5
aI5
aI6
aI6
aI5
aI4
aI3
aI3
aI3
aI4
aI4
aI7
aI7
aI7
aI8
aI8
aI7
aI7
aI7
aI6
aI7
aI7
aI8
aI7
aI8
aI8
aI10
aI11
aI11
aI10
aI12
aI12
aI12
aI11
aI11
aI12
aI11
aI15
aI14
aI13
aI11
aI10
aI10
aI13
aI12
aI12
aI10
aI11
aI10
aI9
aI10
aI11
aI12
aI11
aI12
aI11
aI11
aI12
aI10
aI8
aI6
aI8
aI9
aI9
aI10
aI12
aI12
aI12
aI7
aI5
aI5
aI6
aI6
aI8
aI9
aI9
aI10
aI10
aI9
aI9
aI11
aI9
aI9
aI9
aI12
aI13
aI9
aI11
aI10
aI11
aI12
aI11
aI12
aI12
aI11
aI11
aI10
aI10
aI8
aI8
aI8
aI8
aI8
aI7
aI9
aI6
aI6
aI5
aI5
aI4
aI4
aI5
aI6
aI5
aI4
aI2
aI2
aI3
aI3
aI3
aI3
aI5
aI5
aI7
aI8
aI7
aI5
aI5
aI8
aI8
aI5
aI5
aI7
aI7
aI9
aI8
aI8
aI5
aI5
aI5
aI5
aI8
aI9
aI10
aI11
aI12
aI13
aI12
aI11
aI10
aI10
aI8
aI8
aI8
aI7
aI6
aI8
aI12
aI12
aI14
aI12
aI10
aI11
aI11
aI9
aI10
aI9
aI8
aI10
aI10
aI8
aI6
aI8
aI13
aI13
aI11
aI11
aI10
aI10
aI10
aI12
aI11
aI11
aI6
aI8
aI9
aI9
aI10
aI9
aI6
aI5
aI7
aI9
aI9
aI10
aI13
aI12
aI13
aI14
aI15
aI16
aI16
aI15
aI14
aI12
aI10
aI9
aI8
aI9
aI9
aI9
aI9
aI10
aI11
aI10
aI11
aI14
aI14
aI11
aI14
aI10
aI9
aI9
aI7
aI7
aI7
aI7
aI9
aI9
aI7
aI6
aI8
aI8
aI6
aI6
aI7
aI7
aI6
aI7
aI7
aI9
aI8
aI6
aI6
aI7
aI7
aI4
aI4
aI6
aI7
aI9
aI9
aI8
aI9
aI9
aI7
aI7
aI6
aI5
aI8
aI9
aI8
aI6
aI5
aI6
aI5
aI5
aI4
aI6
aI5
aI6
aI5
aI5
aI4
aI3
aI2
aI2
aI2
aI3
aI3
aI3
aI3
aI6
aI6
aI6
aI6
aI6
aI9
aI9
aI9
aI8
aI7
aI8
aI9
aI9
aI6
aI8
aI11
aI9
aI10
aI9
aI10
aI8
aI9
aI11
aI13
aI13
aI12
aI12
aI11
aI9
aI6
aI5
aI6
aI5
aI5
aI4
aI4
aI4
aI5
aI4
aI4
aI4
aI4
aI7
aI8
aI7
aI3
aI2
aI3
aI3
aI7
aI8
aI7
aI7
aI6
aI7
aI8
aI8
aI7
aI7
aI5
aI7
aI5
aI4
aI6
aI5
aI5
aI6
aI6
aI6
aI5
aI5
aI4
aI3
aI4
aI6
aI6
aI5
aI5
aI5
aI5
aI8
aI10
aI9
aI10
aI8
aI7
aI9
aI8
aI9
aI8
aI6
aI6
aI6
aI8
aI9
aI5
aI6
aI6
aI7
aI6
aI5
aI4
aI4
aI4
aI6
aI8
aI7
aI7
aI7
aI10
aI12
aI12
aI14
aI12
aI10
aI9
aI8
aI9
aI9
aI7
aI5
aI4
aI5
aI7
aI7
aI8
aI9
aI8
aI8
aI9
aI8
aI8
aI10
aI10
aI10
aI11
aI11
aI12
aI14
aI12
aI9
aI8
aI6
aI7
aI6
aI8
aI9
aI11
aI9
aI9
aI8
aI8
aI6
aI6
aI8
aI9
aI9
aI5
aI5
aI6
aI7
aI7
aI7
aI8
aI9
aI10
aI11
aI9
aI9
aI7
aI9
aI7
aI8
aI8
aI11
aI11
aI8
aI6
aI10
aI7
aI5
aI5
aI5
aI7
aI9
aI6
aI8
aI9
aI7
aI6
aI9
aI11
aI9
aI10
aI13
aI13
aI12
aI11
aI10
aI7
aI9
aI10
aI12
aI11
aI9
aI7
aI12
aI9
aI8
aI13
aI11
aI12
aI8
aI5
aI8
aI7
aI6
aI3
aI6
aI5
aI5
aI6
aI8
aI7
aI5
aI5
aI6
aI4
aI3
aI6
aI7
aI6
aI4
aI3
aI4
aI2
aI0
aI4
aI7
aI7
aI5
aI4
aI7
aI7
aI7
aI7
aI8
aI5
aI5
aI4
aI9
aI10
aI8
aI8
aI9
aI8
aI7
aI6
aI11
aI9
aI6
aI6
aI9
aI8
aI5
aI5
aI6
aI3
aI2
aI4
aI5
aI4
aI4
aI9
aI12
aI10
aI9
aI12
aI15
aI17
aI16
aI15
aI15
aI11
aI11
aI13
aI14
aI13
aI9
aI8
aI10
aI10
aI10
aI9
aI12
aI13
aI11
aI10
aI15
aI15
aI11
aI6
aI8
aI8
aI8
aI9
aI11
aI10
aI12
aI9
aI10
aI10
aI7
aI10
aI8
aI10
aI13
aI14
aI15
aI14
aI12
aI17
aI18
aI16
aI13
aI14
aI14
aI14
aI12
aI13
aI15
aI10
aI9
aI11
aI11
aI8
aI11
aI12
aI17
aI16
aI16
aI9
aI14
aI8
aI6
aI5
aI5
aI5
aI5
aI4
aI9
aI6
aI6
aI7
aI13
aI11
aI8
aI9
aI13
aI14
aI12
aI13
aI13
aI16
aI13
aI9
aI13
aI13
aI10
aI9
aI13
aI11
aI10
aI10
aI14
aI14
aI11
aI11
aI13
aI16
aI13
aI13
aI14
aI12
aI12
aI11
aI10
aI12
aI13
aI14
aI15
aI14
aI11
aI11
aI12
aI13
aI14
aI15
aI15
aI14
aI11
aI7
aI10
aI9
aI8
aI6
aI11
aI13
aI11
aI13
aI9
aI7
aI7
aI4
aI10
aI13
aI15
aI14
aI18
aI15
aI14
aI12
aI15
aI15
aI13
aI12
aI10
aI9
aI8
aI8
aI9
aI9
aI9
aI11
aI14
aI15
aI10
aI10
aI14
aI14
aI13
aI11
aI11
aI10
aI9
aI6
aI10
aI9
aI8
aI10
aI9
aI7
aI7
aI9
aI9
aI10
aI9
aI9
aI12
aI12
aI10
aI9
aI9
aI9
aI7
aI9
aI10
aI10
aI10
aI10
aI14
aI15
aI13
aI14
aI13
aI13
aI10
aI11
aI14
aI15
aI13
aI12
aI11
aI10
aI9
aI8
aI8
aI8
aI7
aI6
aI6
aI11
aI8
aI8
aI8
aI8
aI6
aI8
aI9
aI8
aI9
aI10
aI11
aI13
aI10
aI10
aI12
aI13
aI13
aI8
aI9
aI8
aI6
aI9
aI8
aI9
aI9
aI8
aI12
aI13
aI8
aI8
aI12
aI13
aI9
aI11
aI15
aI15
aI12
aI14
aI15
aI16
aI15
aI10
aI16
aI13
aI11
aI14
aI12
aI8
aI7
aI5
aI5
aI4
aI5
aI5
aI10
aI10
aI7
aI8
aI10
aI10
aI8
aI7
aI8
aI7
aI4
aI6
aI9
aI10
aI11
aI13
aI13
aI11
aI10
aI11
aI11
aI11
aI8
aI10
aI10
aI7
aI5
aI5
aI9
aI8
aI7
aI8
aI11
aI10
aI7
aI10
aI11
aI13
aI10
aI10
aI12
aI11
aI9
aI9
aI7
aI8
aI7
aI10
aI13
aI10
aI7
aI7
aI8
aI8
aI9
aI9
aI10
aI12
aI10
aI9
aI8
aI8
aI8
aI7
aI10
aI11
aI13
aI11
aI11
aI10
aI4
aI3
aI6
aI6
aI7
aI9
aI10
aI4
aI4
aI4
aI9
aI8
aI8
aI8
aI11
aI9
aI4
aI3
aI8
aI6
aI3
aI6
aI11
aI8
aI4
aI2
aI5
aI8
aI8
aI8
aI8
aI6
aI4
aI8
aI15
aI9
aI9
aI9
aI13
aI10
aI9
aI11
aI9
aI10
aI7
aI8
aI8
aI7
aI7
aI11
aI13
aI12
aI10
aI11
aI12
aI12
aI10
aI9
aI11
aI11
aI15
aI16
aI14
aI12
aI8
aI6
aI5
aI6
aI7
aI7
aI9
aI7
aI5
aI7
aI8
aI9
aI6
aI7
aI10
aI11
aI10
aI10
aI14
aI13
aI12
aI12
aI10
aI12
aI9
aI8
aI9
aI11
aI10
aI13
aI14
aI12
aI12
aI15
aI13
aI11
aI9
aI12
aI11
aI10
aI7
aI6
aI9
aI7
aI5
aI6
aI12
aI12
aI7
aI7
aI8
aI8
aI11
aI12
aI14
aI13
aI10
aI8
aI9
aI6
aI6
aI5
aI9
aI9
aI8
aI5
aI5
aI5
aI5
aI5
aI7
aI6
aI8
aI8
aI12
aI13
aI11
aI11
aI15
aI14
aI13
aI14
aI14
aI12
aI9
aI9
aI8
aI8
aI8
aI8
aI12
aI12
aI9
aI10
aI10
aI9
aI9
aI9
aI7
aI9
aI6
aI6
aI8
aI7
aI6
aI8
aI7
aI6
aI5
aI7
aI9
aI9
aI8
aI9
aI9
aI8
aI8
aI9
aI11
aI11
aI10
aI9
aI9
aI8
aI7
aI7
aI7
aI9
aI10
aI12
aI13
aI10
aI7
aI4
aI6
aI6
aI8
aI7
aI8
aI10
aI9
aI9
aI9
aI8
aI9
aI11
aI12
aI10
aI8
aI7
aI12
aI9
aI6
aI5
aI10
aI11
aI10
aI12
aI14
aI12
aI9
aI10
aI12
aI8
aI4
aI7
aI7
aI8
aI8
aI5
aI4
aI3
aI4
aI5
aI8
aI7
aI6
aI4
aI9
aI8
aI6
aI5
aI6
aI6
aI7
aI7
aI10
aI9
aI8
aI5
aI9
aI11
aI9
aI9
aI10
aI8
aI7
aI4
aI5
aI5
aI4
aI6
aI8
aI8
aI7
aI6
aI10
aI9
aI9
aI7
aI8
aI7
aI5
aI6
aI8
aI9
aI10
aI12
aI9
aI5
aI4
aI5
aI7
aI6
aI7
aI6
aI5
aI4
aI5
aI7
aI8
aI7
aI5
aI6
aI6
aI6
aI4
aI9
aI8
aI9
aI8
aI7
aI9
aI11
aI9
aI10
aI11
aI9
aI13
aI16
aI15
aI13
aI12
aI14
aI13
aI10
aI9
aI8
aI9
aI10
aI8
aI7
aI13
aI12
aI11
aI9
aI13
aI11
aI11
aI12
aI14
aI10
aI8
aI10
aI13
aI10
aI6
aI7
aI9
aI8
aI8
aI6
aI7
aI5
aI5
aI6
aI10
aI7
aI8
aI10
aI9
aI8
aI7
aI8
aI8
aI12
aI10
aI10
aI12
aI10
aI10
aI9
aI11
aI11
aI11
aI13
aI17
aI18
aI16
aI13
aI14
aI11
aI11
aI8
aI9
aI10
aI9
aI7
aI11
aI11
aI9
aI9
aI8
aI10
aI10
aI11
aI15
aI16
aI16
aI15
aI14
aI16
aI14
aI12
aI14
aI16
aI12
aI12
aI10
aI12
aI10
aI11
aI12
aI9
aI7
aI4
aI6
aI5
aI4
aI3
aI5
aI3
aI4
aI5
aI6
aI9
aI9
aI7
aI10
aI8
aI9
aI10
aI9
aI11
aI9
aI8
aI8
aI7
aI5
aI5
aI6
aI6
aI5
aI6
aI14
aI14
aI13
aI12
aI12
aI12
aI9
aI11
aI12
aI16
aI14
aI14
aI13
aI11
aI11
aI10
aI13
aI13
aI13
aI16
aI14
aI15
aI16
aI14
aI15
aI16
aI14
aI14
aI14
aI15
aI13
aI11
aI14
aI12
aI10
aI13
aI14
aI13
aI16
aI18
aI18
aI16
aI13
aI16
aI14
aI12
aI9
aI7
aI8
aI8
aI8
aI11
aI14
aI13
aI8
aI9
aI11
aI12
aI8
aI9
aI13
aI15
aI13
aI12
aI16
aI16
aI12
aI10
aI10
aI11
aI9
aI11
aI13
aI11
aI6
aI6
aI4
aI4
aI4
aI7
aI11
aI9
aI5
aI6
aI7
aI7
aI7
aI6
aI10
aI9
aI8
aI7
aI11
aI10
aI6
aI5
aI9
aI5
aI4
aI5
aI4
aI7
aI7
aI4
aI4
aI4
aI4
aI3
aI4
aI6
aI4
aI5
aI11
aI11
aI10
aI9
aI12
aI12
aI10
aI11
aI14
aI17
aI11
aI12
aI13
aI12
aI9
aI13
aI11
aI11
aI8
aI7
aI6
aI5
aI6
aI5
aI10
aI11
aI8
aI9
aI9
aI8
aI10
aI7
aI10
aI9
aI5
aI5
aI9
aI8
aI4
aI4
aI10
aI11
aI13
aI14
aI16
aI19
aI15
aI10
aI10
aI10
aI11
aI12
aI14
aI11
aI9
aI10
aI11
aI9
aI7
aI6
aI6
aI6
aI6
aI6
aI9
aI7
aI3
aI4
aI7
aI5
aI5
aI3
aI3
aI5
aI3
aI4
aI7
aI6
aI7
aI8
aI12
aI10
aI4
aI5
aI8
aI7
aI5
aI4
aI9
aI9
aI8
aI9
aI13
aI9
aI6
aI3
aI12
aI10
aI11
aI11
aI9
aI9
aI5
aI6
aI10
aI7
aI8
aI7
aI7
aI8
aI6
aI5
aI6
aI6
aI7
aI7
aI8
aI7
aI10
aI13
aI14
aI12
aI8
aI6
aI9
aI9
aI9
aI10
aI13
aI10
aI8
aI7
aI9
aI7
aI5
aI6
aI9
aI7
aI5
aI9
aI10
aI8
aI4
aI6
aI7
aI6
aI5
aI4
aI8
aI6
aI5
aI5
aI9
aI8
aI6
aI10
aI10
aI11
aI7
aI7
aI7
aI7
aI7
aI8
aI9
aI9
aI8
aI6
aI9
aI9
aI9
aI9
aI7
aI6
aI4
aI5
aI9
aI7
aI6
aI7
aI8
aI7
aI7
aI9
aI11
aI9
aI8
aI7
aI8
aI7
aI7
aI6
aI10
aI11
aI8
aI7
aI7
aI6
aI4
aI7
aI6
aI7
aI8
aI8
aI9
aI6
aI1
aaa.